Archive member included to satisfy reference by file (symbol)

c:/program files/atollic/truestudio for stm32 9.0.1/armtools/bin/../lib/gcc/arm-atollic-eabi/6.3.1/../../../../arm-atollic-eabi/lib/armv7e-m/fpu\libm.a(lib_a-sf_floor.o)
                              src\utils.o (floorf)
c:/program files/atollic/truestudio for stm32 9.0.1/armtools/bin/../lib/gcc/arm-atollic-eabi/6.3.1/../../../../arm-atollic-eabi/lib/armv7e-m/fpu\libm.a(lib_a-wf_pow.o)
                              src\utils.o (powf)
c:/program files/atollic/truestudio for stm32 9.0.1/armtools/bin/../lib/gcc/arm-atollic-eabi/6.3.1/../../../../arm-atollic-eabi/lib/armv7e-m/fpu\libm.a(lib_a-ef_pow.o)
                              c:/program files/atollic/truestudio for stm32 9.0.1/armtools/bin/../lib/gcc/arm-atollic-eabi/6.3.1/../../../../arm-atollic-eabi/lib/armv7e-m/fpu\libm.a(lib_a-wf_pow.o) (__ieee754_powf)
c:/program files/atollic/truestudio for stm32 9.0.1/armtools/bin/../lib/gcc/arm-atollic-eabi/6.3.1/../../../../arm-atollic-eabi/lib/armv7e-m/fpu\libm.a(lib_a-ef_sqrt.o)
                              c:/program files/atollic/truestudio for stm32 9.0.1/armtools/bin/../lib/gcc/arm-atollic-eabi/6.3.1/../../../../arm-atollic-eabi/lib/armv7e-m/fpu\libm.a(lib_a-ef_pow.o) (__ieee754_sqrtf)
c:/program files/atollic/truestudio for stm32 9.0.1/armtools/bin/../lib/gcc/arm-atollic-eabi/6.3.1/../../../../arm-atollic-eabi/lib/armv7e-m/fpu\libm.a(lib_a-s_lib_ver.o)
                              c:/program files/atollic/truestudio for stm32 9.0.1/armtools/bin/../lib/gcc/arm-atollic-eabi/6.3.1/../../../../arm-atollic-eabi/lib/armv7e-m/fpu\libm.a(lib_a-wf_pow.o) (__fdlib_version)
c:/program files/atollic/truestudio for stm32 9.0.1/armtools/bin/../lib/gcc/arm-atollic-eabi/6.3.1/../../../../arm-atollic-eabi/lib/armv7e-m/fpu\libm.a(lib_a-s_matherr.o)
                              c:/program files/atollic/truestudio for stm32 9.0.1/armtools/bin/../lib/gcc/arm-atollic-eabi/6.3.1/../../../../arm-atollic-eabi/lib/armv7e-m/fpu\libm.a(lib_a-wf_pow.o) (matherr)
c:/program files/atollic/truestudio for stm32 9.0.1/armtools/bin/../lib/gcc/arm-atollic-eabi/6.3.1/../../../../arm-atollic-eabi/lib/armv7e-m/fpu\libm.a(lib_a-s_rint.o)
                              c:/program files/atollic/truestudio for stm32 9.0.1/armtools/bin/../lib/gcc/arm-atollic-eabi/6.3.1/../../../../arm-atollic-eabi/lib/armv7e-m/fpu\libm.a(lib_a-wf_pow.o) (rint)
c:/program files/atollic/truestudio for stm32 9.0.1/armtools/bin/../lib/gcc/arm-atollic-eabi/6.3.1/../../../../arm-atollic-eabi/lib/armv7e-m/fpu\libm.a(lib_a-sf_fabs.o)
                              c:/program files/atollic/truestudio for stm32 9.0.1/armtools/bin/../lib/gcc/arm-atollic-eabi/6.3.1/../../../../arm-atollic-eabi/lib/armv7e-m/fpu\libm.a(lib_a-ef_pow.o) (fabsf)
c:/program files/atollic/truestudio for stm32 9.0.1/armtools/bin/../lib/gcc/arm-atollic-eabi/6.3.1/../../../../arm-atollic-eabi/lib/armv7e-m/fpu\libm.a(lib_a-sf_finite.o)
                              c:/program files/atollic/truestudio for stm32 9.0.1/armtools/bin/../lib/gcc/arm-atollic-eabi/6.3.1/../../../../arm-atollic-eabi/lib/armv7e-m/fpu\libm.a(lib_a-wf_pow.o) (finitef)
c:/program files/atollic/truestudio for stm32 9.0.1/armtools/bin/../lib/gcc/arm-atollic-eabi/6.3.1/../../../../arm-atollic-eabi/lib/armv7e-m/fpu\libm.a(lib_a-sf_nan.o)
                              c:/program files/atollic/truestudio for stm32 9.0.1/armtools/bin/../lib/gcc/arm-atollic-eabi/6.3.1/../../../../arm-atollic-eabi/lib/armv7e-m/fpu\libm.a(lib_a-ef_pow.o) (nanf)
c:/program files/atollic/truestudio for stm32 9.0.1/armtools/bin/../lib/gcc/arm-atollic-eabi/6.3.1/../../../../arm-atollic-eabi/lib/armv7e-m/fpu\libm.a(lib_a-sf_scalbn.o)
                              c:/program files/atollic/truestudio for stm32 9.0.1/armtools/bin/../lib/gcc/arm-atollic-eabi/6.3.1/../../../../arm-atollic-eabi/lib/armv7e-m/fpu\libm.a(lib_a-ef_pow.o) (scalbnf)
c:/program files/atollic/truestudio for stm32 9.0.1/armtools/bin/../lib/gcc/arm-atollic-eabi/6.3.1/../../../../arm-atollic-eabi/lib/armv7e-m/fpu\libm.a(lib_a-sf_copysign.o)
                              c:/program files/atollic/truestudio for stm32 9.0.1/armtools/bin/../lib/gcc/arm-atollic-eabi/6.3.1/../../../../arm-atollic-eabi/lib/armv7e-m/fpu\libm.a(lib_a-sf_scalbn.o) (copysignf)
c:/program files/atollic/truestudio for stm32 9.0.1/armtools/bin/../lib/gcc/arm-atollic-eabi/6.3.1/../../../../arm-atollic-eabi/lib/armv7e-m/fpu\libc_nano.a(lib_a-init.o)
                              lib\startup_stm32f4xx.o (__libc_init_array)
c:/program files/atollic/truestudio for stm32 9.0.1/armtools/bin/../lib/gcc/arm-atollic-eabi/6.3.1/../../../../arm-atollic-eabi/lib/armv7e-m/fpu\libc_nano.a(lib_a-memcpy-stub.o)
                              helix\mp3dec.o (memcpy)
c:/program files/atollic/truestudio for stm32 9.0.1/armtools/bin/../lib/gcc/arm-atollic-eabi/6.3.1/../../../../arm-atollic-eabi/lib/armv7e-m/fpu\libc_nano.a(lib_a-memmove.o)
                              helix\mp3dec.o (memmove)
c:/program files/atollic/truestudio for stm32 9.0.1/armtools/bin/../lib/gcc/arm-atollic-eabi/6.3.1/../../../../arm-atollic-eabi/lib/armv7e-m/fpu\libc_nano.a(lib_a-sprintf.o)
                              src\utils.o (sprintf)
c:/program files/atollic/truestudio for stm32 9.0.1/armtools/bin/../lib/gcc/arm-atollic-eabi/6.3.1/../../../../arm-atollic-eabi/lib/armv7e-m/fpu\libc_nano.a(lib_a-impure.o)
                              c:/program files/atollic/truestudio for stm32 9.0.1/armtools/bin/../lib/gcc/arm-atollic-eabi/6.3.1/../../../../arm-atollic-eabi/lib/armv7e-m/fpu\libc_nano.a(lib_a-sprintf.o) (_impure_ptr)
c:/program files/atollic/truestudio for stm32 9.0.1/armtools/bin/../lib/gcc/arm-atollic-eabi/6.3.1/../../../../arm-atollic-eabi/lib/armv7e-m/fpu\libc_nano.a(lib_a-nano-svfprintf.o)
                              c:/program files/atollic/truestudio for stm32 9.0.1/armtools/bin/../lib/gcc/arm-atollic-eabi/6.3.1/../../../../arm-atollic-eabi/lib/armv7e-m/fpu\libc_nano.a(lib_a-sprintf.o) (_svfprintf_r)
c:/program files/atollic/truestudio for stm32 9.0.1/armtools/bin/../lib/gcc/arm-atollic-eabi/6.3.1/../../../../arm-atollic-eabi/lib/armv7e-m/fpu\libc_nano.a(lib_a-nano-vfprintf_i.o)
                              c:/program files/atollic/truestudio for stm32 9.0.1/armtools/bin/../lib/gcc/arm-atollic-eabi/6.3.1/../../../../arm-atollic-eabi/lib/armv7e-m/fpu\libc_nano.a(lib_a-nano-svfprintf.o) (_printf_i)
c:/program files/atollic/truestudio for stm32 9.0.1/armtools/bin/../lib/gcc/arm-atollic-eabi/6.3.1/../../../../arm-atollic-eabi/lib/armv7e-m/fpu\libc_nano.a(lib_a-memchr.o)
                              c:/program files/atollic/truestudio for stm32 9.0.1/armtools/bin/../lib/gcc/arm-atollic-eabi/6.3.1/../../../../arm-atollic-eabi/lib/armv7e-m/fpu\libc_nano.a(lib_a-nano-svfprintf.o) (memchr)
c:/program files/atollic/truestudio for stm32 9.0.1/armtools/bin/../lib/gcc/arm-atollic-eabi/6.3.1/../../../../arm-atollic-eabi/lib/armv7e-m/fpu\libc_nano.a(lib_a-nano-freer.o)
                              c:/program files/atollic/truestudio for stm32 9.0.1/armtools/bin/../lib/gcc/arm-atollic-eabi/6.3.1/../../../../arm-atollic-eabi/lib/armv7e-m/fpu\libc_nano.a(lib_a-nano-svfprintf.o) (_free_r)
c:/program files/atollic/truestudio for stm32 9.0.1/armtools/bin/../lib/gcc/arm-atollic-eabi/6.3.1/../../../../arm-atollic-eabi/lib/armv7e-m/fpu\libc_nano.a(lib_a-nano-mallocr.o)
                              c:/program files/atollic/truestudio for stm32 9.0.1/armtools/bin/../lib/gcc/arm-atollic-eabi/6.3.1/../../../../arm-atollic-eabi/lib/armv7e-m/fpu\libc_nano.a(lib_a-nano-svfprintf.o) (_malloc_r)
c:/program files/atollic/truestudio for stm32 9.0.1/armtools/bin/../lib/gcc/arm-atollic-eabi/6.3.1/../../../../arm-atollic-eabi/lib/armv7e-m/fpu\libc_nano.a(lib_a-nano-reallocr.o)
                              c:/program files/atollic/truestudio for stm32 9.0.1/armtools/bin/../lib/gcc/arm-atollic-eabi/6.3.1/../../../../arm-atollic-eabi/lib/armv7e-m/fpu\libc_nano.a(lib_a-nano-svfprintf.o) (_realloc_r)
c:/program files/atollic/truestudio for stm32 9.0.1/armtools/bin/../lib/gcc/arm-atollic-eabi/6.3.1/../../../../arm-atollic-eabi/lib/armv7e-m/fpu\libc_nano.a(lib_a-mlock.o)
                              c:/program files/atollic/truestudio for stm32 9.0.1/armtools/bin/../lib/gcc/arm-atollic-eabi/6.3.1/../../../../arm-atollic-eabi/lib/armv7e-m/fpu\libc_nano.a(lib_a-nano-freer.o) (__malloc_lock)
c:/program files/atollic/truestudio for stm32 9.0.1/armtools/bin/../lib/gcc/arm-atollic-eabi/6.3.1/../../../../arm-atollic-eabi/lib/armv7e-m/fpu\libc_nano.a(lib_a-nano-msizer.o)
                              c:/program files/atollic/truestudio for stm32 9.0.1/armtools/bin/../lib/gcc/arm-atollic-eabi/6.3.1/../../../../arm-atollic-eabi/lib/armv7e-m/fpu\libc_nano.a(lib_a-nano-reallocr.o) (_malloc_usable_size_r)
c:/program files/atollic/truestudio for stm32 9.0.1/armtools/bin/../lib/gcc/arm-atollic-eabi/6.3.1/armv7e-m/fpu\libgcc.a(_arm_addsubdf3.o)
                              c:/program files/atollic/truestudio for stm32 9.0.1/armtools/bin/../lib/gcc/arm-atollic-eabi/6.3.1/../../../../arm-atollic-eabi/lib/armv7e-m/fpu\libm.a(lib_a-s_rint.o) (__aeabi_dsub)
c:/program files/atollic/truestudio for stm32 9.0.1/armtools/bin/../lib/gcc/arm-atollic-eabi/6.3.1/armv7e-m/fpu\libgcc.a(_arm_muldivdf3.o)
                              c:/program files/atollic/truestudio for stm32 9.0.1/armtools/bin/../lib/gcc/arm-atollic-eabi/6.3.1/../../../../arm-atollic-eabi/lib/armv7e-m/fpu\libm.a(lib_a-wf_pow.o) (__aeabi_ddiv)
c:/program files/atollic/truestudio for stm32 9.0.1/armtools/bin/../lib/gcc/arm-atollic-eabi/6.3.1/armv7e-m/fpu\libgcc.a(_arm_cmpdf2.o)
                              c:/program files/atollic/truestudio for stm32 9.0.1/armtools/bin/../lib/gcc/arm-atollic-eabi/6.3.1/../../../../arm-atollic-eabi/lib/armv7e-m/fpu\libm.a(lib_a-wf_pow.o) (__aeabi_dcmpeq)
c:/program files/atollic/truestudio for stm32 9.0.1/armtools/bin/../lib/gcc/arm-atollic-eabi/6.3.1/armv7e-m/fpu\libgcc.a(_arm_truncdfsf2.o)
                              c:/program files/atollic/truestudio for stm32 9.0.1/armtools/bin/../lib/gcc/arm-atollic-eabi/6.3.1/../../../../arm-atollic-eabi/lib/armv7e-m/fpu\libm.a(lib_a-wf_pow.o) (__aeabi_d2f)

Allocating common symbols
Common symbol       size              file

__errno             0x4               src\syscalls.o
time_var1           0x4               src\main.o
hMP3Decoder         0x4               src\main.o
time_var2           0x4               src\main.o
mp3FrameInfo        0x1c              src\main.o

Memory Configuration

Name             Origin             Length             Attributes
FLASH            0x08000000         0x00100000         xr
RAM              0x20000000         0x00020000         xrw
MEMORY_B1        0x60000000         0x00000000         xr
CCMRAM           0x10000000         0x00010000         rw
*default*        0x00000000         0xffffffff

Linker script and memory map

LOAD c:/program files/atollic/truestudio for stm32 9.0.1/armtools/bin/../lib/gcc/arm-atollic-eabi/6.3.1/armv7e-m/fpu/crti.o
LOAD c:/program files/atollic/truestudio for stm32 9.0.1/armtools/bin/../lib/gcc/arm-atollic-eabi/6.3.1/armv7e-m/fpu/crtbegin.o
LOAD helix\mp3dec.o
LOAD helix\mp3tabs.o
LOAD helix\real\bitstream.o
LOAD helix\real\buffers.o
LOAD helix\real\dct32.o
LOAD helix\real\dequant.o
LOAD helix\real\dqchan.o
LOAD helix\real\huffman.o
LOAD helix\real\hufftabs.o
LOAD helix\real\imdct.o
LOAD helix\real\polyphase.o
LOAD helix\real\scalfact.o
LOAD helix\real\stproc.o
LOAD helix\real\subband.o
LOAD helix\real\trigtabs_fixpt.o
LOAD lib\src\peripherals\misc.o
LOAD lib\src\peripherals\stm32f4xx_adc.o
LOAD lib\src\peripherals\stm32f4xx_can.o
LOAD lib\src\peripherals\stm32f4xx_crc.o
LOAD lib\src\peripherals\stm32f4xx_cryp.o
LOAD lib\src\peripherals\stm32f4xx_cryp_aes.o
LOAD lib\src\peripherals\stm32f4xx_cryp_des.o
LOAD lib\src\peripherals\stm32f4xx_cryp_tdes.o
LOAD lib\src\peripherals\stm32f4xx_dac.o
LOAD lib\src\peripherals\stm32f4xx_dbgmcu.o
LOAD lib\src\peripherals\stm32f4xx_dcmi.o
LOAD lib\src\peripherals\stm32f4xx_dma.o
LOAD lib\src\peripherals\stm32f4xx_exti.o
LOAD lib\src\peripherals\stm32f4xx_flash.o
LOAD lib\src\peripherals\stm32f4xx_fsmc.o
LOAD lib\src\peripherals\stm32f4xx_gpio.o
LOAD lib\src\peripherals\stm32f4xx_hash.o
LOAD lib\src\peripherals\stm32f4xx_hash_md5.o
LOAD lib\src\peripherals\stm32f4xx_hash_sha1.o
LOAD lib\src\peripherals\stm32f4xx_i2c.o
LOAD lib\src\peripherals\stm32f4xx_iwdg.o
LOAD lib\src\peripherals\stm32f4xx_pwr.o
LOAD lib\src\peripherals\stm32f4xx_rcc.o
LOAD lib\src\peripherals\stm32f4xx_rng.o
LOAD lib\src\peripherals\stm32f4xx_rtc.o
LOAD lib\src\peripherals\stm32f4xx_sdio.o
LOAD lib\src\peripherals\stm32f4xx_spi.o
LOAD lib\src\peripherals\stm32f4xx_syscfg.o
LOAD lib\src\peripherals\stm32f4xx_tim.o
LOAD lib\src\peripherals\stm32f4xx_usart.o
LOAD lib\src\peripherals\stm32f4xx_wwdg.o
LOAD lib\startup_stm32f4xx.o
LOAD src\Audio.o
LOAD src\main.o
LOAD src\mp3_data.o
LOAD src\stm32f4xx_it.o
LOAD src\syscalls.o
LOAD src\system_stm32f4xx.o
LOAD src\utils.o
                0x00001000                malloc_getpagesize_P = 0x1000
START GROUP
LOAD c:/program files/atollic/truestudio for stm32 9.0.1/armtools/bin/../lib/gcc/arm-atollic-eabi/6.3.1/../../../../arm-atollic-eabi/lib/armv7e-m/fpu\libstdc++_nano.a
LOAD c:/program files/atollic/truestudio for stm32 9.0.1/armtools/bin/../lib/gcc/arm-atollic-eabi/6.3.1/../../../../arm-atollic-eabi/lib/armv7e-m/fpu\libsupc++_nano.a
END GROUP
LOAD c:/program files/atollic/truestudio for stm32 9.0.1/armtools/bin/../lib/gcc/arm-atollic-eabi/6.3.1/../../../../arm-atollic-eabi/lib/armv7e-m/fpu\libstdc++_nano.a
LOAD c:/program files/atollic/truestudio for stm32 9.0.1/armtools/bin/../lib/gcc/arm-atollic-eabi/6.3.1/../../../../arm-atollic-eabi/lib/armv7e-m/fpu\libm.a
LOAD c:/program files/atollic/truestudio for stm32 9.0.1/armtools/bin/../lib/gcc/arm-atollic-eabi/6.3.1/../../../../arm-atollic-eabi/lib/armv7e-m/fpu\libc_nano.a
START GROUP
LOAD c:/program files/atollic/truestudio for stm32 9.0.1/armtools/bin/../lib/gcc/arm-atollic-eabi/6.3.1/armv7e-m/fpu\libgcc.a
LOAD c:/program files/atollic/truestudio for stm32 9.0.1/armtools/bin/../lib/gcc/arm-atollic-eabi/6.3.1/../../../../arm-atollic-eabi/lib/armv7e-m/fpu\libc_nano.a
END GROUP
START GROUP
LOAD c:/program files/atollic/truestudio for stm32 9.0.1/armtools/bin/../lib/gcc/arm-atollic-eabi/6.3.1/armv7e-m/fpu\libgcc.a
LOAD c:/program files/atollic/truestudio for stm32 9.0.1/armtools/bin/../lib/gcc/arm-atollic-eabi/6.3.1/../../../../arm-atollic-eabi/lib/armv7e-m/fpu\libc_nano.a
LOAD c:/program files/atollic/truestudio for stm32 9.0.1/armtools/bin/../lib/gcc/arm-atollic-eabi/6.3.1/../../../../arm-atollic-eabi/lib/armv7e-m/fpu\libnosys.a
END GROUP
START GROUP
LOAD c:/program files/atollic/truestudio for stm32 9.0.1/armtools/bin/../lib/gcc/arm-atollic-eabi/6.3.1/armv7e-m/fpu\libgcc.a
LOAD c:/program files/atollic/truestudio for stm32 9.0.1/armtools/bin/../lib/gcc/arm-atollic-eabi/6.3.1/../../../../arm-atollic-eabi/lib/armv7e-m/fpu\libc_nano.a
LOAD c:/program files/atollic/truestudio for stm32 9.0.1/armtools/bin/../lib/gcc/arm-atollic-eabi/6.3.1/../../../../arm-atollic-eabi/lib/armv7e-m/fpu\libnosys.a
END GROUP
LOAD c:/program files/atollic/truestudio for stm32 9.0.1/armtools/bin/../lib/gcc/arm-atollic-eabi/6.3.1/armv7e-m/fpu/crtend.o
LOAD c:/program files/atollic/truestudio for stm32 9.0.1/armtools/bin/../lib/gcc/arm-atollic-eabi/6.3.1/armv7e-m/fpu/crtn.o
                0x20020000                _estack = 0x20020000
                0x00000000                _Min_Heap_Size = 0x0
                0x00000400                _Min_Stack_Size = 0x400

.isr_vector     0x08000000      0x188
                0x08000000                . = ALIGN (0x4)
 *(.isr_vector)
 .isr_vector    0x08000000      0x188 lib\startup_stm32f4xx.o
                0x08000000                g_pfnVectors
                0x08000188                . = ALIGN (0x4)

.text           0x08000190    0x174b8
                0x08000190                . = ALIGN (0x4)
 *(.text)
 .text          0x08000190        0x0 c:/program files/atollic/truestudio for stm32 9.0.1/armtools/bin/../lib/gcc/arm-atollic-eabi/6.3.1/armv7e-m/fpu/crti.o
 .text          0x08000190       0x40 c:/program files/atollic/truestudio for stm32 9.0.1/armtools/bin/../lib/gcc/arm-atollic-eabi/6.3.1/armv7e-m/fpu/crtbegin.o
 .text          0x080001d0      0x6bc helix\mp3dec.o
                0x080001d0                MP3InitDecoder
                0x080001e6                MP3FreeDecoder
                0x08000208                MP3FindSyncWord
                0x080002fa                MP3GetLastFrameInfo
                0x080003b8                MP3GetNextFrameInfo
                0x0800045c                MP3Decode
 .text          0x0800088c        0x0 helix\mp3tabs.o
 .text          0x0800088c      0x858 helix\real\bitstream.o
                0x0800088c                xmp3fixpt_SetBitstreamPointer
                0x0800099e                xmp3fixpt_GetBits
                0x08000a2e                xmp3fixpt_CalcBitsUsed
                0x08000a68                xmp3fixpt_CheckPadBit
                0x08000aa4                xmp3fixpt_UnpackFrameHeader
                0x08000da8                xmp3fixpt_UnpackSideInfo
 .text          0x080010e4      0x144 helix\real\buffers.o
                0x0800111c                xmp3fixpt_AllocateBuffers
                0x08001210                xmp3fixpt_FreeBuffers
 .text          0x08001228      0xe90 helix\real\dct32.o
                0x0800124c                xmp3fixpt_FDCT32
 .text          0x080020b8      0x3a0 helix\real\dequant.o
                0x080020d6                xmp3fixpt_Dequantize
 .text          0x08002458      0x5fc helix\real\dqchan.o
                0x080026fc                xmp3fixpt_DequantChannel
 .text          0x08002a54      0xb28 helix\real\huffman.o
                0x080032a4                xmp3fixpt_DecodeHuffman
 .text          0x0800357c        0x0 helix\real\hufftabs.o
 .text          0x0800357c     0x1bdc helix\real\imdct.o
                0x08004eb0                xmp3fixpt_IMDCT
 .text          0x08005158     0x1540 helix\real\polyphase.o
                0x0800520c                xmp3fixpt_PolyphaseMono
                0x0800598e                xmp3fixpt_PolyphaseStereo
 .text          0x08006698      0x960 helix\real\scalfact.o
                0x08006e42                xmp3fixpt_UnpackScaleFactors
 .text          0x08006ff8      0xa04 helix\real\stproc.o
                0x08007048                xmp3fixpt_MidSideProc
                0x080070fc                xmp3fixpt_IntensityProcMPEG1
                0x08007522                xmp3fixpt_IntensityProcMPEG2
 .text          0x080079fc      0x198 helix\real\subband.o
                0x080079fc                xmp3fixpt_Subband
 .text          0x08007b94        0x0 helix\real\trigtabs_fixpt.o
 .text          0x08007b94      0x194 lib\src\peripherals\misc.o
                0x08007b94                NVIC_PriorityGroupConfig
                0x08007bbc                NVIC_Init
                0x08007c80                NVIC_SetVectorTable
                0x08007cac                NVIC_SystemLPConfig
                0x08007cf0                SysTick_CLKSourceConfig
 .text          0x08007d28      0xa9c lib\src\peripherals\stm32f4xx_adc.o
                0x08007d28                ADC_DeInit
                0x08007d44                ADC_Init
                0x08007df0                ADC_StructInit
                0x08007e2e                ADC_CommonInit
                0x08007e80                ADC_CommonStructInit
                0x08007eac                ADC_Cmd
                0x08007ee4                ADC_AnalogWatchdogCmd
                0x08007f1e                ADC_AnalogWatchdogThresholdsConfig
                0x08007f46                ADC_AnalogWatchdogSingleChannelConfig
                0x08007f7e                ADC_TempSensorVrefintCmd
                0x08007fb8                ADC_VBATCmd
                0x08007ff4                ADC_RegularChannelConfig
                0x08008188                ADC_SoftwareStartConv
                0x080081a8                ADC_GetSoftwareStartConvStatus
                0x080081d8                ADC_EOCOnEachRegularChannelCmd
                0x08008210                ADC_ContinuousModeCmd
                0x08008248                ADC_DiscModeChannelCountConfig
                0x0800828c                ADC_DiscModeCmd
                0x080082c4                ADC_GetConversionValue
                0x080082de                ADC_GetMultiModeConversionValue
                0x080082f4                ADC_DMACmd
                0x0800832c                ADC_DMARequestAfterLastTransferCmd
                0x08008364                ADC_MultiModeDMARequestAfterLastTransferCmd
                0x080083a0                ADC_InjectedChannelConfig
                0x080084c2                ADC_InjectedSequencerLengthConfig
                0x08008506                ADC_SetInjectedOffset
                0x0800853a                ADC_ExternalTrigInjectedConvConfig
                0x08008570                ADC_ExternalTrigInjectedConvEdgeConfig
                0x080085a6                ADC_SoftwareStartInjectedConv
                0x080085c6                ADC_GetSoftwareStartInjectedConvCmdStatus
                0x080085f6                ADC_AutoInjectedConvCmd
                0x0800862e                ADC_InjectedDiscModeCmd
                0x08008666                ADC_GetInjectedConversionValue
                0x08008696                ADC_ITConfig
                0x080086e8                ADC_GetFlagStatus
                0x0800871c                ADC_ClearFlag
                0x0800873c                ADC_GetITStatus
                0x08008798                ADC_ClearITPendingBit
 .text          0x080087c4      0xfc0 lib\src\peripherals\stm32f4xx_can.o
                0x080087c4                CAN_DeInit
                0x0800880c                CAN_Init
                0x080089ae                CAN_FilterInit
                0x08008b24                CAN_StructInit
                0x08008b7a                CAN_SlaveStartBank
                0x08008bdc                CAN_DBGFreeze
                0x08008c14                CAN_TTComModeCmd
                0x08008cac                CAN_Transmit
                0x08008e48                CAN_TransmitStatus
                0x08008f1c                CAN_CancelTransmit
                0x08008f6e                CAN_Receive
                0x080090ea                CAN_FIFORelease
                0x08009122                CAN_MessagePending
                0x0800916c                CAN_OperatingModeRequest
                0x08009268                CAN_Sleep
                0x080092a2                CAN_WakeUp
                0x080092f8                CAN_GetLastErrorCode
                0x0800931e                CAN_GetReceiveErrorCounter
                0x08009340                CAN_GetLSBTransmitErrorCounter
                0x08009362                CAN_ITConfig
                0x0800939e                CAN_GetFlagStatus
                0x0800946c                CAN_ClearFlag
                0x080094e0                CAN_GetITStatus
                0x08009674                CAN_ClearITPendingBit
 .text          0x08009784       0xd0 lib\src\peripherals\stm32f4xx_crc.o
                0x08009784                CRC_ResetDR
                0x0800979c                CRC_CalcCRC
                0x080097c0                CRC_CalcBlockCRC
                0x08009804                CRC_GetCRC
                0x0800981c                CRC_SetIDRegister
                0x0800983c                CRC_GetIDRegister
 .text          0x08009854      0x518 lib\src\peripherals\stm32f4xx_cryp.o
                0x08009854                CRYP_DeInit
                0x0800986c                CRYP_Init
                0x0800990c                CRYP_StructInit
                0x08009938                CRYP_KeyInit
                0x08009990                CRYP_KeyStructInit
                0x080099d4                CRYP_IVInit
                0x08009a0c                CRYP_IVStructInit
                0x08009a38                CRYP_FIFOFlush
                0x08009a58                CRYP_Cmd
                0x08009a94                CRYP_DataIn
                0x08009ab4                CRYP_DataOut
                0x08009acc                CRYP_SaveContext
                0x08009bd0                CRYP_RestoreContext
                0x08009c5c                CRYP_DMACmd
                0x08009ca0                CRYP_ITConfig
                0x08009ce4                CRYP_GetITStatus
                0x08009d1c                CRYP_GetFlagStatus
 .text          0x08009d6c      0xe8a lib\src\peripherals\stm32f4xx_cryp_aes.o
                0x08009d6c                CRYP_AES_ECB
                0x0800a1b8                CRYP_AES_CBC
                0x0800a70e                CRYP_AES_CTR
 .text          0x0800abf6      0x2b2 lib\src\peripherals\stm32f4xx_cryp_des.o
                0x0800abf6                CRYP_DES_ECB
                0x0800ad28                CRYP_DES_CBC
 .text          0x0800aea8      0x3ca lib\src\peripherals\stm32f4xx_cryp_tdes.o
                0x0800aea8                CRYP_TDES_ECB
                0x0800b042                CRYP_TDES_CBC
 *fill*         0x0800b272        0x2 
 .text          0x0800b274      0x450 lib\src\peripherals\stm32f4xx_dac.o
                0x0800b274                DAC_DeInit
                0x0800b290                DAC_Init
                0x0800b2f8                DAC_StructInit
                0x0800b324                DAC_Cmd
                0x0800b370                DAC_SoftwareTriggerCmd
                0x0800b3c0                DAC_DualSoftwareTriggerCmd
                0x0800b3fc                DAC_WaveGenerationCmd
                0x0800b448                DAC_SetChannel1Data
                0x0800b480                DAC_SetChannel2Data
                0x0800b4b8                DAC_SetDualChannelData
                0x0800b510                DAC_GetDataOutputValue
                0x0800b544                DAC_DMACmd
                0x0800b594                DAC_ITConfig
                0x0800b5e0                DAC_GetFlagStatus
                0x0800b61c                DAC_ClearFlag
                0x0800b644                DAC_GetITStatus
                0x0800b69c                DAC_ClearITPendingBit
 .text          0x0800b6c4       0xf4 lib\src\peripherals\stm32f4xx_dbgmcu.o
                0x0800b6c4                DBGMCU_GetREVID
                0x0800b6dc                DBGMCU_GetDEVID
                0x0800b6f8                DBGMCU_Config
                0x0800b738                DBGMCU_APB1PeriphConfig
                0x0800b778                DBGMCU_APB2PeriphConfig
 .text          0x0800b7b8      0x3a4 lib\src\peripherals\stm32f4xx_dcmi.o
                0x0800b7b8                DCMI_DeInit
                0x0800b7f4                DCMI_Init
                0x0800b874                DCMI_StructInit
                0x0800b8b2                DCMI_CROPConfig
                0x0800b8f0                DCMI_CROPCmd
                0x0800b92c                DCMI_SetEmbeddedSynchroCodes
                0x0800b968                DCMI_JPEGCmd
                0x0800b9a4                DCMI_Cmd
                0x0800b9e0                DCMI_CaptureCmd
                0x0800ba1c                DCMI_ReadData
                0x0800ba34                DCMI_ITConfig
                0x0800ba78                DCMI_GetFlagStatus
                0x0800badc                DCMI_ClearFlag
                0x0800bafc                DCMI_GetITStatus
                0x0800bb3c                DCMI_ClearITPendingBit
 .text          0x0800bb5c      0x71c lib\src\peripherals\stm32f4xx_dma.o
                0x0800bb5c                DMA_DeInit
                0x0800bd04                DMA_Init
                0x0800bdb4                DMA_StructInit
                0x0800be22                DMA_Cmd
                0x0800be5a                DMA_PeriphIncOffsetSizeConfig
                0x0800be90                DMA_FlowControllerConfig
                0x0800bec6                DMA_SetCurrDataCounter
                0x0800bee4                DMA_GetCurrDataCounter
                0x0800befe                DMA_DoubleBufferModeConfig
                0x0800bf3c                DMA_DoubleBufferModeCmd
                0x0800bf74                DMA_MemoryTargetConfig
                0x0800bfa0                DMA_GetCurrentMemoryTarget
                0x0800bfd0                DMA_GetCmdStatus
                0x0800c000                DMA_GetFIFOStatus
                0x0800c024                DMA_GetFlagStatus
                0x0800c09c                DMA_ClearFlag
                0x0800c0f8                DMA_ITConfig
                0x0800c16c                DMA_GetITStatus
                0x0800c21c                DMA_ClearITPendingBit
 .text          0x0800c278      0x224 lib\src\peripherals\stm32f4xx_exti.o
                0x0800c278                EXTI_DeInit
                0x0800c2ac                EXTI_Init
                0x0800c390                EXTI_StructInit
                0x0800c3bc                EXTI_GenerateSWInterrupt
                0x0800c3e0                EXTI_GetFlagStatus
                0x0800c414                EXTI_ClearFlag
                0x0800c434                EXTI_GetITStatus
                0x0800c47c                EXTI_ClearITPendingBit
 .text          0x0800c49c      0x7c8 lib\src\peripherals\stm32f4xx_flash.o
                0x0800c49c                FLASH_SetLatency
                0x0800c4bc                FLASH_PrefetchBufferCmd
                0x0800c4f8                FLASH_InstructionCacheCmd
                0x0800c534                FLASH_DataCacheCmd
                0x0800c570                FLASH_InstructionCacheReset
                0x0800c590                FLASH_DataCacheReset
                0x0800c5b0                FLASH_Unlock
                0x0800c5e0                FLASH_Lock
                0x0800c600                FLASH_EraseSector
                0x0800c6c0                FLASH_EraseAllSectors
                0x0800c760                FLASH_ProgramDoubleWord
                0x0800c7d0                FLASH_ProgramWord
                0x0800c838                FLASH_ProgramHalfWord
                0x0800c8a4                FLASH_ProgramByte
                0x0800c90c                FLASH_OB_Unlock
                0x0800c940                FLASH_OB_Lock
                0x0800c960                FLASH_OB_WRPConfig
                0x0800c9bc                FLASH_OB_RDPConfig
                0x0800c9ec                FLASH_OB_UserConfig
                0x0800ca44                FLASH_OB_BORConfig
                0x0800ca80                FLASH_OB_Launch
                0x0800cab0                FLASH_OB_GetUser
                0x0800cacc                FLASH_OB_GetWRP
                0x0800cae4                FLASH_OB_GetRDP
                0x0800cb14                FLASH_OB_GetBOR
                0x0800cb34                FLASH_ITConfig
                0x0800cb74                FLASH_GetFlagStatus
                0x0800cba8                FLASH_ClearFlag
                0x0800cbc8                FLASH_GetStatus
                0x0800cc34                FLASH_WaitForLastOperation
 .text          0x0800cc64      0x968 lib\src\peripherals\stm32f4xx_fsmc.o
                0x0800cc64                FSMC_NORSRAMDeInit
                0x0800ccbc                FSMC_NORSRAMInit
                0x0800cdf4                FSMC_NORSRAMStructInit
                0x0800ceca                FSMC_NORSRAMCmd
                0x0800cf20                FSMC_NANDDeInit
                0x0800cf7c                FSMC_NANDInit
                0x0800d04c                FSMC_NANDStructInit
                0x0800d0ca                FSMC_NANDCmd
                0x0800d138                FSMC_NANDECCCmd
                0x0800d1a4                FSMC_GetECC
                0x0800d1dc                FSMC_PCCARDDeInit
                0x0800d214                FSMC_PCCARDInit
                0x0800d2c0                FSMC_PCCARDStructInit
                0x0800d346                FSMC_PCCARDCmd
                0x0800d384                FSMC_ITConfig
                0x0800d424                FSMC_GetFlagStatus
                0x0800d488                FSMC_ClearFlag
                0x0800d4e8                FSMC_GetITStatus
                0x0800d568                FSMC_ClearITPendingBit
 .text          0x0800d5cc      0x490 lib\src\peripherals\stm32f4xx_gpio.o
                0x0800d5cc                GPIO_DeInit
                0x0800d6ec                GPIO_Init
                0x0800d808                GPIO_StructInit
                0x0800d83c                GPIO_PinLockConfig
                0x0800d880                GPIO_ReadInputDataBit
                0x0800d8b4                GPIO_ReadInputData
                0x0800d8ce                GPIO_ReadOutputDataBit
                0x0800d902                GPIO_ReadOutputData
                0x0800d91c                GPIO_SetBits
                0x0800d93a                GPIO_ResetBits
                0x0800d958                GPIO_WriteBit
                0x0800d988                GPIO_Write
                0x0800d9a6                GPIO_ToggleBits
                0x0800d9ca                GPIO_PinAFConfig
 .text          0x0800da5c      0x3c8 lib\src\peripherals\stm32f4xx_hash.o
                0x0800da5c                HASH_DeInit
                0x0800da74                HASH_Init
                0x0800dae0                HASH_StructInit
                0x0800db0c                HASH_Reset
                0x0800db2c                HASH_SetLastWordValidBitsNbr
                0x0800db60                HASH_DataIn
                0x0800db80                HASH_GetInFIFOWordsNbr
                0x0800dba0                HASH_GetDigest
                0x0800dbe0                HASH_StartDigest
                0x0800dc00                HASH_SaveContext
                0x0800dc5c                HASH_RestoreContext
                0x0800dcc8                HASH_DMACmd
                0x0800dd04                HASH_ITConfig
                0x0800dd48                HASH_GetFlagStatus
                0x0800dd98                HASH_ClearFlag
                0x0800ddbc                HASH_GetITStatus
                0x0800de00                HASH_ClearITPendingBit
 .text          0x0800de24      0x32a lib\src\peripherals\stm32f4xx_hash_md5.o
                0x0800de24                HASH_MD5
                0x0800df3e                HMAC_MD5
 .text          0x0800e14e      0x356 lib\src\peripherals\stm32f4xx_hash_sha1.o
                0x0800e14e                HASH_SHA1
                0x0800e27e                HMAC_SHA1
 .text          0x0800e4a4      0x994 lib\src\peripherals\stm32f4xx_i2c.o
                0x0800e4a4                I2C_DeInit
                0x0800e518                I2C_Init
                0x0800e69c                I2C_StructInit
                0x0800e6da                I2C_Cmd
                0x0800e71a                I2C_GenerateSTART
                0x0800e75a                I2C_GenerateSTOP
                0x0800e79a                I2C_Send7bitAddress
                0x0800e7d6                I2C_AcknowledgeConfig
                0x0800e816                I2C_OwnAddress2Config
                0x0800e85a                I2C_DualAddressCmd
                0x0800e89a                I2C_GeneralCallCmd
                0x0800e8da                I2C_SoftwareResetCmd
                0x0800e91e                I2C_StretchClockCmd
                0x0800e95e                I2C_FastModeDutyCycleConfig
                0x0800e9a0                I2C_NACKPositionConfig
                0x0800e9e2                I2C_SMBusAlertConfig
                0x0800ea24                I2C_ARPCmd
                0x0800ea64                I2C_SendData
                0x0800ea84                I2C_ReceiveData
                0x0800eaa0                I2C_TransmitPEC
                0x0800eae0                I2C_PECPositionConfig
                0x0800eb22                I2C_CalculatePEC
                0x0800eb62                I2C_GetPEC
                0x0800eb82                I2C_DMACmd
                0x0800ebc2                I2C_DMALastTransferCmd
                0x0800ec02                I2C_ReadRegister
                0x0800ec30                I2C_ITConfig
                0x0800ec78                I2C_CheckEvent
                0x0800ecd8                I2C_GetLastEvent
                0x0800ed1c                I2C_GetFlagStatus
                0x0800ed82                I2C_ClearFlag
                0x0800edb0                I2C_GetITStatus
                0x0800ee0a                I2C_ClearITPendingBit
 .text          0x0800ee38       0xd0 lib\src\peripherals\stm32f4xx_iwdg.o
                0x0800ee38                IWDG_WriteAccessCmd
                0x0800ee58                IWDG_SetPrescaler
                0x0800ee78                IWDG_SetReload
                0x0800ee98                IWDG_ReloadCounter
                0x0800eeb4                IWDG_Enable
                0x0800eed0                IWDG_GetFlagStatus
 .text          0x0800ef08      0x228 lib\src\peripherals\stm32f4xx_pwr.o
                0x0800ef08                PWR_DeInit
                0x0800ef24                PWR_BackupAccessCmd
                0x0800ef44                PWR_PVDLevelConfig
                0x0800ef7c                PWR_PVDCmd
                0x0800ef9c                PWR_WakeUpPinCmd
                0x0800efbc                PWR_BackupRegulatorCmd
                0x0800efdc                PWR_MainRegulatorModeConfig
                0x0800f014                PWR_FlashPowerDownCmd
                0x0800f034                PWR_EnterSTOPMode
                0x0800f098                PWR_EnterSTANDBYMode
                0x0800f0d4                PWR_GetFlagStatus
                0x0800f108                PWR_ClearFlag
 .text          0x0800f130      0xadc lib\src\peripherals\stm32f4xx_rcc.o
                0x0800f130                RCC_DeInit
                0x0800f180                RCC_HSEConfig
                0x0800f1a8                RCC_WaitForHSEStartUp
                0x0800f1f8                RCC_AdjustHSICalibrationValue
                0x0800f234                RCC_HSICmd
                0x0800f254                RCC_LSEConfig
                0x0800f298                RCC_LSICmd
                0x0800f2b8                RCC_PLLConfig
                0x0800f2f8                RCC_PLLCmd
                0x0800f318                RCC_PLLI2SConfig
                0x0800f344                RCC_PLLI2SCmd
                0x0800f364                RCC_ClockSecuritySystemCmd
                0x0800f384                RCC_MCO1Config
                0x0800f3c4                RCC_MCO2Config
                0x0800f404                RCC_SYSCLKConfig
                0x0800f43c                RCC_GetSYSCLKSource
                0x0800f45c                RCC_HCLKConfig
                0x0800f494                RCC_PCLK1Config
                0x0800f4cc                RCC_PCLK2Config
                0x0800f508                RCC_GetClocksFreq
                0x0800f658                RCC_RTCCLKConfig
                0x0800f6b4                RCC_RTCCLKCmd
                0x0800f6d4                RCC_BackupResetCmd
                0x0800f6f4                RCC_I2SCLKConfig
                0x0800f714                RCC_AHB1PeriphClockCmd
                0x0800f754                RCC_AHB2PeriphClockCmd
                0x0800f794                RCC_AHB3PeriphClockCmd
                0x0800f7d4                RCC_APB1PeriphClockCmd
                0x0800f814                RCC_APB2PeriphClockCmd
                0x0800f854                RCC_AHB1PeriphResetCmd
                0x0800f894                RCC_AHB2PeriphResetCmd
                0x0800f8d4                RCC_AHB3PeriphResetCmd
                0x0800f914                RCC_APB1PeriphResetCmd
                0x0800f954                RCC_APB2PeriphResetCmd
                0x0800f994                RCC_AHB1PeriphClockLPModeCmd
                0x0800f9d4                RCC_AHB2PeriphClockLPModeCmd
                0x0800fa14                RCC_AHB3PeriphClockLPModeCmd
                0x0800fa54                RCC_APB1PeriphClockLPModeCmd
                0x0800fa94                RCC_APB2PeriphClockLPModeCmd
                0x0800fad4                RCC_ITConfig
                0x0800fb20                RCC_GetFlagStatus
                0x0800fb94                RCC_ClearFlag
                0x0800fbb4                RCC_GetITStatus
                0x0800fbec                RCC_ClearITPendingBit
 .text          0x0800fc0c      0x160 lib\src\peripherals\stm32f4xx_rng.o
                0x0800fc0c                RNG_DeInit
                0x0800fc24                RNG_Cmd
                0x0800fc60                RNG_GetRandomNumber
                0x0800fc78                RNG_ITConfig
                0x0800fcb4                RNG_GetFlagStatus
                0x0800fcec                RNG_ClearFlag
                0x0800fd10                RNG_GetITStatus
                0x0800fd48                RNG_ClearITPendingBit
 .text          0x0800fd6c     0x1550 lib\src\peripherals\stm32f4xx_rtc.o
                0x0800fd6c                RTC_DeInit
                0x0800fe60                RTC_Init
                0x0800fed8                RTC_StructInit
                0x0800fefe                RTC_WriteProtectionCmd
                0x0800ff34                RTC_EnterInitMode
                0x0800ffa8                RTC_ExitInitMode
                0x0800ffc8                RTC_WaitForSynchro
                0x08010040                RTC_RefClockCmd
                0x080100a8                RTC_BypassShadowCmd
                0x080100f4                RTC_SetTime
                0x08010208                RTC_TimeStructInit
                0x08010234                RTC_GetTime
                0x080102d8                RTC_GetSubSecond
                0x08010300                RTC_SetDate
                0x08010420                RTC_DateStructInit
                0x0801044c                RTC_GetDate
                0x080104e8                RTC_SetAlarm
                0x08010620                RTC_AlarmStructInit
                0x0801065e                RTC_GetAlarm
                0x08010740                RTC_AlarmCmd
                0x080107dc                RTC_AlarmSubSecondConfig
                0x0801082c                RTC_GetAlarmSubSecond
                0x08010868                RTC_WakeUpClockConfig
                0x080108ac                RTC_SetWakeUpCounter
                0x080108dc                RTC_GetWakeUpCounter
                0x080108f4                RTC_WakeUpCmd
                0x08010988                RTC_DayLightSavingConfig
                0x080109d0                RTC_GetStoreOperation
                0x080109ec                RTC_OutputConfig
                0x08010a34                RTC_CoarseCalibConfig
                0x08010a84                RTC_CoarseCalibCmd
                0x08010aec                RTC_CalibOutputCmd
                0x08010b38                RTC_CalibOutputConfig
                0x08010b7c                RTC_SmoothCalibConfig
                0x08010c00                RTC_TimeStampCmd
                0x08010c64                RTC_GetTimeStamp
                0x08010d84                RTC_GetTimeStampSubSecond
                0x08010d9c                RTC_TamperTriggerConfig
                0x08010ddc                RTC_TamperCmd
                0x08010e1c                RTC_TamperFilterConfig
                0x08010e4c                RTC_TamperSamplingFreqConfig
                0x08010e7c                RTC_TamperPinsPrechargeDuration
                0x08010eac                RTC_TimeStampOnTamperDetectionCmd
                0x08010ee8                RTC_TamperPullUpCmd
                0x08010f24                RTC_WriteBackupRegister
                0x08010f58                RTC_ReadBackupRegister
                0x08010f88                RTC_TamperPinSelection
                0x08010fb8                RTC_TimeStampPinSelection
                0x08010fe8                RTC_OutputTypeConfig
                0x08011018                RTC_SynchroShiftConfig
                0x080110b4                RTC_ITConfig
                0x08011130                RTC_GetFlagStatus
                0x08011174                RTC_ClearFlag
                0x080111a4                RTC_GetITStatus
                0x0801120c                RTC_ClearITPendingBit
 .text          0x080112bc      0x4f0 lib\src\peripherals\stm32f4xx_sdio.o
                0x080112bc                SDIO_DeInit
                0x080112d8                SDIO_Init
                0x08011338                SDIO_StructInit
                0x08011370                SDIO_ClockCmd
                0x08011390                SDIO_SetPowerState
                0x080113b0                SDIO_GetPowerState
                0x080113cc                SDIO_SendCommand
                0x08011424                SDIO_CmdStructInit
                0x08011456                SDIO_GetCommandResponse
                0x08011470                SDIO_GetResponse
                0x08011498                SDIO_DataConfig
                0x080114f4                SDIO_DataStructInit
                0x0801152e                SDIO_GetDataCounter
                0x08011544                SDIO_ReadData
                0x0801155c                SDIO_WriteData
                0x0801157c                SDIO_GetFIFOCount
                0x08011594                SDIO_StartSDIOReadWait
                0x080115b4                SDIO_StopSDIOReadWait
                0x080115d4                SDIO_SetSDIOReadWaitMode
                0x080115f4                SDIO_SetSDIOOperation
                0x08011614                SDIO_SendSDIOSuspendCmd
                0x08011634                SDIO_CommandCompletionCmd
                0x08011654                SDIO_CEATAITCmd
                0x08011684                SDIO_SendCEATACmd
                0x080116a4                SDIO_DMACmd
                0x080116c4                SDIO_ITConfig
                0x08011704                SDIO_GetFlagStatus
                0x08011738                SDIO_ClearFlag
                0x08011758                SDIO_GetITStatus
                0x0801178c                SDIO_ClearITPendingBit
 .text          0x080117ac      0x81c lib\src\peripherals\stm32f4xx_spi.o
                0x080117ac                SPI_I2S_DeInit
                0x08011820                SPI_Init
                0x080118a8                I2S_Init
                0x08011a54                SPI_StructInit
                0x08011a9e                I2S_StructInit
                0x08011ad6                SPI_Cmd
                0x08011b16                I2S_Cmd
                0x08011b56                SPI_DataSizeConfig
                0x08011b8e                SPI_BiDirectionalLineConfig
                0x08011bd0                SPI_NSSInternalSoftwareConfig
                0x08011c14                SPI_SSOutputCmd
                0x08011c54                SPI_TIModeCmd
                0x08011c94                I2S_FullDuplexConfig
                0x08011d30                SPI_I2S_ReceiveData
                0x08011d4a                SPI_I2S_SendData
                0x08011d68                SPI_CalculateCRC
                0x08011da8                SPI_TransmitCRC
                0x08011dcc                SPI_GetCRC
                0x08011dfe                SPI_GetCRCPolynomial
                0x08011e18                SPI_I2S_DMACmd
                0x08011e60                SPI_I2S_ITConfig
                0x08011ec2                SPI_I2S_GetFlagStatus
                0x08011efa                SPI_I2S_ClearFlag
                0x08011f1c                SPI_I2S_GetITStatus
                0x08011f92                SPI_I2S_ClearITPendingBit
 .text          0x08011fc8      0x134 lib\src\peripherals\stm32f4xx_syscfg.o
                0x08011fc8                SYSCFG_DeInit
                0x08011fe4                SYSCFG_MemoryRemapConfig
                0x08012004                SYSCFG_EXTILineConfig
                0x08012088                SYSCFG_ETH_MediaInterfaceConfig
                0x080120a8                SYSCFG_CompensationCellCmd
                0x080120c8                SYSCFG_GetCompensationCellStatus
 .text          0x080120fc     0x1c18 lib\src\peripherals\stm32f4xx_tim.o
                0x080120fc                TIM_DeInit
                0x080122bc                TIM_TimeBaseInit
                0x08012394                TIM_TimeBaseStructInit
                0x080123c8                TIM_PrescalerConfig
                0x080123f0                TIM_CounterModeConfig
                0x08012428                TIM_SetCounter
                0x08012444                TIM_SetAutoreload
                0x08012460                TIM_GetCounter
                0x08012478                TIM_GetPrescaler
                0x08012492                TIM_UpdateDisableConfig
                0x080124d2                TIM_UpdateRequestConfig
                0x08012512                TIM_ARRPreloadConfig
                0x08012552                TIM_SelectOnePulseMode
                0x0801258a                TIM_SetClockDivision
                0x080125c2                TIM_Cmd
                0x08012602                TIM_OC1Init
                0x080126f8                TIM_OC2Init
                0x08012808                TIM_OC3Init
                0x08012914                TIM_OC4Init
                0x080129e4                TIM_OCStructInit
                0x08012a28                TIM_SelectOCxM
                0x08012ada                TIM_SetCompare1
                0x08012af6                TIM_SetCompare2
                0x08012b12                TIM_SetCompare3
                0x08012b2e                TIM_SetCompare4
                0x08012b4a                TIM_ForcedOC1Config
                0x08012b82                TIM_ForcedOC2Config
                0x08012bbe                TIM_ForcedOC3Config
                0x08012bf6                TIM_ForcedOC4Config
                0x08012c32                TIM_OC1PreloadConfig
                0x08012c6a                TIM_OC2PreloadConfig
                0x08012ca6                TIM_OC3PreloadConfig
                0x08012cde                TIM_OC4PreloadConfig
                0x08012d1a                TIM_OC1FastConfig
                0x08012d52                TIM_OC2FastConfig
                0x08012d8e                TIM_OC3FastConfig
                0x08012dc6                TIM_OC4FastConfig
                0x08012e02                TIM_ClearOC1Ref
                0x08012e3a                TIM_ClearOC2Ref
                0x08012e76                TIM_ClearOC3Ref
                0x08012eae                TIM_ClearOC4Ref
                0x08012eea                TIM_OC1PolarityConfig
                0x08012f22                TIM_OC1NPolarityConfig
                0x08012f5a                TIM_OC2PolarityConfig
                0x08012f96                TIM_OC2NPolarityConfig
                0x08012fd2                TIM_OC3PolarityConfig
                0x0801300e                TIM_OC3NPolarityConfig
                0x0801304a                TIM_OC4PolarityConfig
                0x08013086                TIM_CCxCmd
                0x080130dc                TIM_CCxNCmd
                0x08013132                TIM_ICInit
                0x080131da                TIM_ICStructInit
                0x0801320c                TIM_PWMIConfig
                0x080132c4                TIM_GetCapture1
                0x080132dc                TIM_GetCapture2
                0x080132f4                TIM_GetCapture3
                0x0801330c                TIM_GetCapture4
                0x08013324                TIM_SetIC1Prescaler
                0x0801335c                TIM_SetIC2Prescaler
                0x08013398                TIM_SetIC3Prescaler
                0x080133d0                TIM_SetIC4Prescaler
                0x0801340c                TIM_BDTRConfig
                0x0801345c                TIM_BDTRStructInit
                0x0801349a                TIM_CtrlPWMOutputs
                0x080134e6                TIM_SelectCOM
                0x08013526                TIM_CCPreloadControl
                0x08013566                TIM_ITConfig
                0x080135ae                TIM_GenerateEvent
                0x080135cc                TIM_GetFlagStatus
                0x08013604                TIM_ClearFlag
                0x08013626                TIM_GetITStatus
                0x0801367a                TIM_ClearITPendingBit
                0x0801369c                TIM_DMAConfig
                0x080136c6                TIM_DMACmd
                0x0801370e                TIM_SelectCCDMA
                0x0801374e                TIM_InternalClockConfig
                0x08013772                TIM_ITRxExternalClockConfig
                0x080137a0                TIM_TIxExternalClockConfig
                0x080137fc                TIM_ETRClockMode1Config
                0x0801385a                TIM_ETRClockMode2Config
                0x08013898                TIM_SelectInputTrigger
                0x080138d0                TIM_SelectOutputTrigger
                0x08013908                TIM_SelectSlaveMode
                0x08013940                TIM_SelectMasterSlaveMode
                0x08013978                TIM_ETRConfig
                0x080139cc                TIM_EncoderInterfaceConfig
                0x08013a64                TIM_SelectHallSensor
                0x08013aa4                TIM_RemapConfig
 .text          0x08013d14      0x92c lib\src\peripherals\stm32f4xx_usart.o
                0x08013d14                USART_DeInit
                0x08013de8                USART_Init
                0x08013f5c                USART_StructInit
                0x08013f96                USART_ClockInit
                0x08013fec                USART_ClockStructInit
                0x08014018                USART_Cmd
                0x08014058                USART_SetPrescaler
                0x08014092                USART_OverSampling8Cmd
                0x080140d6                USART_OneBitMethodCmd
                0x08014116                USART_SendData
                0x0801413a                USART_ReceiveData
                0x0801415a                USART_SetAddress
                0x08014194                USART_ReceiverWakeUpCmd
                0x080141d4                USART_WakeUpConfig
                0x0801420c                USART_LINBreakDetectLengthConfig
                0x08014244                USART_LINCmd
                0x08014284                USART_SendBreak
                0x080142a8                USART_HalfDuplexCmd
                0x080142e8                USART_SetGuardTime
                0x08014324                USART_SmartCardCmd
                0x08014364                USART_SmartCardNACKCmd
                0x080143a4                USART_IrDAConfig
                0x080143dc                USART_IrDACmd
                0x0801441c                USART_DMACmd
                0x08014464                USART_ITConfig
                0x080144f4                USART_GetFlagStatus
                0x0801452c                USART_ClearFlag
                0x0801454e                USART_GetITStatus
                0x08014604                USART_ClearITPendingBit
 .text          0x08014640      0x138 lib\src\peripherals\stm32f4xx_wwdg.o
                0x08014640                WWDG_DeInit
                0x0801465c                WWDG_SetPrescaler
                0x08014690                WWDG_SetWindowValue
                0x080146cc                WWDG_EnableIT
                0x080146e4                WWDG_SetCounter
                0x08014708                WWDG_Enable
                0x08014730                WWDG_GetFlagStatus
                0x08014760                WWDG_ClearFlag
 .text          0x08014778       0x14 lib\startup_stm32f4xx.o
 .text          0x0801478c      0x704 src\Audio.o
                0x08014848                InitializeAudio
                0x08014b10                AudioOn
                0x08014b2c                AudioOff
                0x08014b48                SetAudioVolume
                0x08014b78                OutputAudioSample
                0x08014ba8                OutputAudioSampleWithoutBlocking
                0x08014bc8                PlayAudioWithCallback
                0x08014c38                StopAudio
                0x08014c68                ProvideAudioBuffer
                0x08014c92                ProvideAudioBufferWithoutBlocking
                0x08014e5c                DMA1_Stream7_IRQHandler
 .text          0x08014e90      0x374 src\main.o
                0x08014f28                main
                0x080150d4                init
                0x080151a8                timing_handler
                0x080151dc                Delay
 .text          0x08015204        0x0 src\mp3_data.o
 .text          0x08015204       0x5c src\stm32f4xx_it.o
                0x08015204                NMI_Handler
                0x08015212                HardFault_Handler
                0x08015218                MemManage_Handler
                0x0801521e                BusFault_Handler
                0x08015224                UsageFault_Handler
                0x0801522a                SVC_Handler
                0x08015238                DebugMon_Handler
                0x08015246                PendSV_Handler
                0x08015254                SysTick_Handler
 .text          0x08015260      0x138 src\syscalls.o
                0x08015260                _close
                0x08015276                _fstat
                0x0801528e                _isatty
                0x080152a4                _lseek
                0x080152be                _open
                0x080152da                _read
                0x080152f4                _sbrk_r
                0x08015348                _write
 .text          0x08015398      0x25c src\system_stm32f4xx.o
                0x08015398                SystemInit
                0x08015404                SystemCoreClockUpdate
 .text          0x080155f4       0xb8 src\utils.o
                0x080155f4                ftostr
 .text          0x080156ac        0x0 c:/program files/atollic/truestudio for stm32 9.0.1/armtools/bin/../lib/gcc/arm-atollic-eabi/6.3.1/../../../../arm-atollic-eabi/lib/armv7e-m/fpu\libm.a(lib_a-sf_floor.o)
 .text          0x080156ac        0x0 c:/program files/atollic/truestudio for stm32 9.0.1/armtools/bin/../lib/gcc/arm-atollic-eabi/6.3.1/../../../../arm-atollic-eabi/lib/armv7e-m/fpu\libm.a(lib_a-wf_pow.o)
 .text          0x080156ac        0x0 c:/program files/atollic/truestudio for stm32 9.0.1/armtools/bin/../lib/gcc/arm-atollic-eabi/6.3.1/../../../../arm-atollic-eabi/lib/armv7e-m/fpu\libm.a(lib_a-ef_pow.o)
 .text          0x080156ac        0x0 c:/program files/atollic/truestudio for stm32 9.0.1/armtools/bin/../lib/gcc/arm-atollic-eabi/6.3.1/../../../../arm-atollic-eabi/lib/armv7e-m/fpu\libm.a(lib_a-ef_sqrt.o)
 .text          0x080156ac        0x0 c:/program files/atollic/truestudio for stm32 9.0.1/armtools/bin/../lib/gcc/arm-atollic-eabi/6.3.1/../../../../arm-atollic-eabi/lib/armv7e-m/fpu\libm.a(lib_a-s_lib_ver.o)
 .text          0x080156ac        0x0 c:/program files/atollic/truestudio for stm32 9.0.1/armtools/bin/../lib/gcc/arm-atollic-eabi/6.3.1/../../../../arm-atollic-eabi/lib/armv7e-m/fpu\libm.a(lib_a-s_matherr.o)
 .text          0x080156ac        0x0 c:/program files/atollic/truestudio for stm32 9.0.1/armtools/bin/../lib/gcc/arm-atollic-eabi/6.3.1/../../../../arm-atollic-eabi/lib/armv7e-m/fpu\libm.a(lib_a-s_rint.o)
 .text          0x080156ac        0x0 c:/program files/atollic/truestudio for stm32 9.0.1/armtools/bin/../lib/gcc/arm-atollic-eabi/6.3.1/../../../../arm-atollic-eabi/lib/armv7e-m/fpu\libm.a(lib_a-sf_fabs.o)
 .text          0x080156ac        0x0 c:/program files/atollic/truestudio for stm32 9.0.1/armtools/bin/../lib/gcc/arm-atollic-eabi/6.3.1/../../../../arm-atollic-eabi/lib/armv7e-m/fpu\libm.a(lib_a-sf_finite.o)
 .text          0x080156ac        0x0 c:/program files/atollic/truestudio for stm32 9.0.1/armtools/bin/../lib/gcc/arm-atollic-eabi/6.3.1/../../../../arm-atollic-eabi/lib/armv7e-m/fpu\libm.a(lib_a-sf_nan.o)
 .text          0x080156ac        0x0 c:/program files/atollic/truestudio for stm32 9.0.1/armtools/bin/../lib/gcc/arm-atollic-eabi/6.3.1/../../../../arm-atollic-eabi/lib/armv7e-m/fpu\libm.a(lib_a-sf_scalbn.o)
 .text          0x080156ac        0x0 c:/program files/atollic/truestudio for stm32 9.0.1/armtools/bin/../lib/gcc/arm-atollic-eabi/6.3.1/../../../../arm-atollic-eabi/lib/armv7e-m/fpu\libm.a(lib_a-sf_copysign.o)
 .text          0x080156ac        0x0 c:/program files/atollic/truestudio for stm32 9.0.1/armtools/bin/../lib/gcc/arm-atollic-eabi/6.3.1/../../../../arm-atollic-eabi/lib/armv7e-m/fpu\libc_nano.a(lib_a-init.o)
 .text          0x080156ac        0x0 c:/program files/atollic/truestudio for stm32 9.0.1/armtools/bin/../lib/gcc/arm-atollic-eabi/6.3.1/../../../../arm-atollic-eabi/lib/armv7e-m/fpu\libc_nano.a(lib_a-memcpy-stub.o)
 .text          0x080156ac        0x0 c:/program files/atollic/truestudio for stm32 9.0.1/armtools/bin/../lib/gcc/arm-atollic-eabi/6.3.1/../../../../arm-atollic-eabi/lib/armv7e-m/fpu\libc_nano.a(lib_a-memmove.o)
 .text          0x080156ac        0x0 c:/program files/atollic/truestudio for stm32 9.0.1/armtools/bin/../lib/gcc/arm-atollic-eabi/6.3.1/../../../../arm-atollic-eabi/lib/armv7e-m/fpu\libc_nano.a(lib_a-sprintf.o)
 .text          0x080156ac        0x0 c:/program files/atollic/truestudio for stm32 9.0.1/armtools/bin/../lib/gcc/arm-atollic-eabi/6.3.1/../../../../arm-atollic-eabi/lib/armv7e-m/fpu\libc_nano.a(lib_a-impure.o)
 .text          0x080156ac        0x0 c:/program files/atollic/truestudio for stm32 9.0.1/armtools/bin/../lib/gcc/arm-atollic-eabi/6.3.1/../../../../arm-atollic-eabi/lib/armv7e-m/fpu\libc_nano.a(lib_a-nano-svfprintf.o)
 .text          0x080156ac        0x0 c:/program files/atollic/truestudio for stm32 9.0.1/armtools/bin/../lib/gcc/arm-atollic-eabi/6.3.1/../../../../arm-atollic-eabi/lib/armv7e-m/fpu\libc_nano.a(lib_a-nano-vfprintf_i.o)
 *fill*         0x080156ac        0x4 
 .text          0x080156b0       0xa0 c:/program files/atollic/truestudio for stm32 9.0.1/armtools/bin/../lib/gcc/arm-atollic-eabi/6.3.1/../../../../arm-atollic-eabi/lib/armv7e-m/fpu\libc_nano.a(lib_a-memchr.o)
                0x080156b0                memchr
 .text          0x08015750        0x0 c:/program files/atollic/truestudio for stm32 9.0.1/armtools/bin/../lib/gcc/arm-atollic-eabi/6.3.1/../../../../arm-atollic-eabi/lib/armv7e-m/fpu\libc_nano.a(lib_a-nano-freer.o)
 .text          0x08015750        0x0 c:/program files/atollic/truestudio for stm32 9.0.1/armtools/bin/../lib/gcc/arm-atollic-eabi/6.3.1/../../../../arm-atollic-eabi/lib/armv7e-m/fpu\libc_nano.a(lib_a-nano-mallocr.o)
 .text          0x08015750        0x0 c:/program files/atollic/truestudio for stm32 9.0.1/armtools/bin/../lib/gcc/arm-atollic-eabi/6.3.1/../../../../arm-atollic-eabi/lib/armv7e-m/fpu\libc_nano.a(lib_a-nano-reallocr.o)
 .text          0x08015750        0x0 c:/program files/atollic/truestudio for stm32 9.0.1/armtools/bin/../lib/gcc/arm-atollic-eabi/6.3.1/../../../../arm-atollic-eabi/lib/armv7e-m/fpu\libc_nano.a(lib_a-mlock.o)
 .text          0x08015750        0x0 c:/program files/atollic/truestudio for stm32 9.0.1/armtools/bin/../lib/gcc/arm-atollic-eabi/6.3.1/../../../../arm-atollic-eabi/lib/armv7e-m/fpu\libc_nano.a(lib_a-nano-msizer.o)
 .text          0x08015750      0x370 c:/program files/atollic/truestudio for stm32 9.0.1/armtools/bin/../lib/gcc/arm-atollic-eabi/6.3.1/armv7e-m/fpu\libgcc.a(_arm_addsubdf3.o)
                0x08015750                __aeabi_drsub
                0x08015758                __aeabi_dsub
                0x08015758                __subdf3
                0x0801575c                __aeabi_dadd
                0x0801575c                __adddf3
                0x080159d4                __floatunsidf
                0x080159d4                __aeabi_ui2d
                0x080159f4                __floatsidf
                0x080159f4                __aeabi_i2d
                0x08015a18                __aeabi_f2d
                0x08015a18                __extendsfdf2
                0x08015a54                __floatundidf
                0x08015a54                __aeabi_ul2d
                0x08015a64                __floatdidf
                0x08015a64                __aeabi_l2d
 .text          0x08015ac0      0x424 c:/program files/atollic/truestudio for stm32 9.0.1/armtools/bin/../lib/gcc/arm-atollic-eabi/6.3.1/armv7e-m/fpu\libgcc.a(_arm_muldivdf3.o)
                0x08015ac0                __aeabi_dmul
                0x08015ac0                __muldf3
                0x08015d14                __divdf3
                0x08015d14                __aeabi_ddiv
 .text          0x08015ee4      0x110 c:/program files/atollic/truestudio for stm32 9.0.1/armtools/bin/../lib/gcc/arm-atollic-eabi/6.3.1/armv7e-m/fpu\libgcc.a(_arm_cmpdf2.o)
                0x08015ee4                __gtdf2
                0x08015ee4                __gedf2
                0x08015eec                __ltdf2
                0x08015eec                __ledf2
                0x08015ef4                __nedf2
                0x08015ef4                __eqdf2
                0x08015ef4                __cmpdf2
                0x08015f70                __aeabi_cdrcmple
                0x08015f80                __aeabi_cdcmpeq
                0x08015f80                __aeabi_cdcmple
                0x08015f90                __aeabi_dcmpeq
                0x08015fa4                __aeabi_dcmplt
                0x08015fb8                __aeabi_dcmple
                0x08015fcc                __aeabi_dcmpge
                0x08015fe0                __aeabi_dcmpgt
 .text          0x08015ff4       0xa0 c:/program files/atollic/truestudio for stm32 9.0.1/armtools/bin/../lib/gcc/arm-atollic-eabi/6.3.1/armv7e-m/fpu\libgcc.a(_arm_truncdfsf2.o)
                0x08015ff4                __truncdfsf2
                0x08015ff4                __aeabi_d2f
 .text          0x08016094        0x0 c:/program files/atollic/truestudio for stm32 9.0.1/armtools/bin/../lib/gcc/arm-atollic-eabi/6.3.1/armv7e-m/fpu/crtend.o
 .text          0x08016094        0x0 c:/program files/atollic/truestudio for stm32 9.0.1/armtools/bin/../lib/gcc/arm-atollic-eabi/6.3.1/armv7e-m/fpu/crtn.o
 *(.text*)
 .text.Reset_Handler
                0x08016094       0x48 lib\startup_stm32f4xx.o
                0x08016094                Reset_Handler
 .text.Default_Handler
                0x080160dc        0x2 lib\startup_stm32f4xx.o
                0x080160dc                RTC_Alarm_IRQHandler
                0x080160dc                HASH_RNG_IRQHandler
                0x080160dc                EXTI2_IRQHandler
                0x080160dc                TIM8_CC_IRQHandler
                0x080160dc                TIM1_CC_IRQHandler
                0x080160dc                DMA2_Stream5_IRQHandler
                0x080160dc                DMA1_Stream5_IRQHandler
                0x080160dc                PVD_IRQHandler
                0x080160dc                SDIO_IRQHandler
                0x080160dc                TAMP_STAMP_IRQHandler
                0x080160dc                CAN2_RX1_IRQHandler
                0x080160dc                EXTI3_IRQHandler
                0x080160dc                TIM8_TRG_COM_TIM14_IRQHandler
                0x080160dc                TIM1_UP_TIM10_IRQHandler
                0x080160dc                TIM8_UP_TIM13_IRQHandler
                0x080160dc                I2C3_ER_IRQHandler
                0x080160dc                EXTI0_IRQHandler
                0x080160dc                I2C2_EV_IRQHandler
                0x080160dc                DMA1_Stream2_IRQHandler
                0x080160dc                CAN1_RX0_IRQHandler
                0x080160dc                FPU_IRQHandler
                0x080160dc                OTG_HS_WKUP_IRQHandler
                0x080160dc                CAN2_SCE_IRQHandler
                0x080160dc                DMA2_Stream2_IRQHandler
                0x080160dc                SPI1_IRQHandler
                0x080160dc                TIM6_DAC_IRQHandler
                0x080160dc                TIM1_BRK_TIM9_IRQHandler
                0x080160dc                DCMI_IRQHandler
                0x080160dc                CAN2_RX0_IRQHandler
                0x080160dc                DMA2_Stream3_IRQHandler
                0x080160dc                USART6_IRQHandler
                0x080160dc                USART3_IRQHandler
                0x080160dc                CRYP_IRQHandler
                0x080160dc                CAN1_RX1_IRQHandler
                0x080160dc                UART5_IRQHandler
                0x080160dc                DMA2_Stream0_IRQHandler
                0x080160dc                TIM4_IRQHandler
                0x080160dc                I2C1_EV_IRQHandler
                0x080160dc                DMA1_Stream6_IRQHandler
                0x080160dc                DMA1_Stream1_IRQHandler
                0x080160dc                UART4_IRQHandler
                0x080160dc                TIM3_IRQHandler
                0x080160dc                RCC_IRQHandler
                0x080160dc                TIM8_BRK_TIM12_IRQHandler
                0x080160dc                Default_Handler
                0x080160dc                EXTI15_10_IRQHandler
                0x080160dc                ADC_IRQHandler
                0x080160dc                TIM7_IRQHandler
                0x080160dc                CAN2_TX_IRQHandler
                0x080160dc                TIM5_IRQHandler
                0x080160dc                DMA2_Stream7_IRQHandler
                0x080160dc                I2C3_EV_IRQHandler
                0x080160dc                EXTI9_5_IRQHandler
                0x080160dc                RTC_WKUP_IRQHandler
                0x080160dc                ETH_WKUP_IRQHandler
                0x080160dc                SPI2_IRQHandler
                0x080160dc                OTG_HS_EP1_IN_IRQHandler
                0x080160dc                DMA1_Stream0_IRQHandler
                0x080160dc                CAN1_TX_IRQHandler
                0x080160dc                EXTI4_IRQHandler
                0x080160dc                FSMC_IRQHandler
                0x080160dc                ETH_IRQHandler
                0x080160dc                OTG_HS_EP1_OUT_IRQHandler
                0x080160dc                WWDG_IRQHandler
                0x080160dc                TIM2_IRQHandler
                0x080160dc                OTG_FS_WKUP_IRQHandler
                0x080160dc                TIM1_TRG_COM_TIM11_IRQHandler
                0x080160dc                OTG_HS_IRQHandler
                0x080160dc                EXTI1_IRQHandler
                0x080160dc                USART2_IRQHandler
                0x080160dc                I2C2_ER_IRQHandler
                0x080160dc                DMA2_Stream1_IRQHandler
                0x080160dc                CAN1_SCE_IRQHandler
                0x080160dc                FLASH_IRQHandler
                0x080160dc                DMA2_Stream4_IRQHandler
                0x080160dc                USART1_IRQHandler
                0x080160dc                OTG_FS_IRQHandler
                0x080160dc                SPI3_IRQHandler
                0x080160dc                DMA1_Stream4_IRQHandler
                0x080160dc                I2C1_ER_IRQHandler
                0x080160dc                DMA2_Stream6_IRQHandler
                0x080160dc                DMA1_Stream3_IRQHandler
 *fill*         0x080160de        0x2 
 .text.floorf   0x080160e0       0x84 c:/program files/atollic/truestudio for stm32 9.0.1/armtools/bin/../lib/gcc/arm-atollic-eabi/6.3.1/../../../../arm-atollic-eabi/lib/armv7e-m/fpu\libm.a(lib_a-sf_floor.o)
                0x080160e0                floorf
 .text.powf     0x08016164      0x2f8 c:/program files/atollic/truestudio for stm32 9.0.1/armtools/bin/../lib/gcc/arm-atollic-eabi/6.3.1/../../../../arm-atollic-eabi/lib/armv7e-m/fpu\libm.a(lib_a-wf_pow.o)
                0x08016164                powf
 .text.__ieee754_powf
                0x0801645c      0x584 c:/program files/atollic/truestudio for stm32 9.0.1/armtools/bin/../lib/gcc/arm-atollic-eabi/6.3.1/../../../../arm-atollic-eabi/lib/armv7e-m/fpu\libm.a(lib_a-ef_pow.o)
                0x0801645c                __ieee754_powf
 .text.__ieee754_sqrtf
                0x080169e0       0x8e c:/program files/atollic/truestudio for stm32 9.0.1/armtools/bin/../lib/gcc/arm-atollic-eabi/6.3.1/../../../../arm-atollic-eabi/lib/armv7e-m/fpu\libm.a(lib_a-ef_sqrt.o)
                0x080169e0                __ieee754_sqrtf
 .text.matherr  0x08016a6e        0x4 c:/program files/atollic/truestudio for stm32 9.0.1/armtools/bin/../lib/gcc/arm-atollic-eabi/6.3.1/../../../../arm-atollic-eabi/lib/armv7e-m/fpu\libm.a(lib_a-s_matherr.o)
                0x08016a6e                matherr
 *fill*         0x08016a72        0x2 
 .text.rint     0x08016a74      0x110 c:/program files/atollic/truestudio for stm32 9.0.1/armtools/bin/../lib/gcc/arm-atollic-eabi/6.3.1/../../../../arm-atollic-eabi/lib/armv7e-m/fpu\libm.a(lib_a-s_rint.o)
                0x08016a74                rint
 .text.fabsf    0x08016b84        0xe c:/program files/atollic/truestudio for stm32 9.0.1/armtools/bin/../lib/gcc/arm-atollic-eabi/6.3.1/../../../../arm-atollic-eabi/lib/armv7e-m/fpu\libm.a(lib_a-sf_fabs.o)
                0x08016b84                fabsf
 .text.finitef  0x08016b92       0x14 c:/program files/atollic/truestudio for stm32 9.0.1/armtools/bin/../lib/gcc/arm-atollic-eabi/6.3.1/../../../../arm-atollic-eabi/lib/armv7e-m/fpu\libm.a(lib_a-sf_finite.o)
                0x08016b92                finitef
 *fill*         0x08016ba6        0x2 
 .text.nanf     0x08016ba8        0xc c:/program files/atollic/truestudio for stm32 9.0.1/armtools/bin/../lib/gcc/arm-atollic-eabi/6.3.1/../../../../arm-atollic-eabi/lib/armv7e-m/fpu\libm.a(lib_a-sf_nan.o)
                0x08016ba8                nanf
 .text.scalbnf  0x08016bb4       0xc0 c:/program files/atollic/truestudio for stm32 9.0.1/armtools/bin/../lib/gcc/arm-atollic-eabi/6.3.1/../../../../arm-atollic-eabi/lib/armv7e-m/fpu\libm.a(lib_a-sf_scalbn.o)
                0x08016bb4                scalbnf
 .text.copysignf
                0x08016c74       0x18 c:/program files/atollic/truestudio for stm32 9.0.1/armtools/bin/../lib/gcc/arm-atollic-eabi/6.3.1/../../../../arm-atollic-eabi/lib/armv7e-m/fpu\libm.a(lib_a-sf_copysign.o)
                0x08016c74                copysignf
 .text.__libc_init_array
                0x08016c8c       0x48 c:/program files/atollic/truestudio for stm32 9.0.1/armtools/bin/../lib/gcc/arm-atollic-eabi/6.3.1/../../../../arm-atollic-eabi/lib/armv7e-m/fpu\libc_nano.a(lib_a-init.o)
                0x08016c8c                __libc_init_array
 .text.memcpy   0x08016cd4       0x16 c:/program files/atollic/truestudio for stm32 9.0.1/armtools/bin/../lib/gcc/arm-atollic-eabi/6.3.1/../../../../arm-atollic-eabi/lib/armv7e-m/fpu\libc_nano.a(lib_a-memcpy-stub.o)
                0x08016cd4                memcpy
 .text.memmove  0x08016cea       0x34 c:/program files/atollic/truestudio for stm32 9.0.1/armtools/bin/../lib/gcc/arm-atollic-eabi/6.3.1/../../../../arm-atollic-eabi/lib/armv7e-m/fpu\libc_nano.a(lib_a-memmove.o)
                0x08016cea                memmove
 .text._sprintf_r
                0x08016d1e       0x40 c:/program files/atollic/truestudio for stm32 9.0.1/armtools/bin/../lib/gcc/arm-atollic-eabi/6.3.1/../../../../arm-atollic-eabi/lib/armv7e-m/fpu\libc_nano.a(lib_a-sprintf.o)
                0x08016d1e                _sprintf_r
                0x08016d1e                _siprintf_r
 *fill*         0x08016d5e        0x2 
 .text.sprintf  0x08016d60       0x48 c:/program files/atollic/truestudio for stm32 9.0.1/armtools/bin/../lib/gcc/arm-atollic-eabi/6.3.1/../../../../arm-atollic-eabi/lib/armv7e-m/fpu\libc_nano.a(lib_a-sprintf.o)
                0x08016d60                siprintf
                0x08016d60                sprintf
 .text.__ssputs_r
                0x08016da8       0xb6 c:/program files/atollic/truestudio for stm32 9.0.1/armtools/bin/../lib/gcc/arm-atollic-eabi/6.3.1/../../../../arm-atollic-eabi/lib/armv7e-m/fpu\libc_nano.a(lib_a-nano-svfprintf.o)
                0x08016da8                __ssputs_r
 .text.__ssprint_r
                0x08016e5e       0xf4 c:/program files/atollic/truestudio for stm32 9.0.1/armtools/bin/../lib/gcc/arm-atollic-eabi/6.3.1/../../../../arm-atollic-eabi/lib/armv7e-m/fpu\libc_nano.a(lib_a-nano-svfprintf.o)
                0x08016e5e                __ssprint_r
 *fill*         0x08016f52        0x2 
 .text._svfprintf_r
                0x08016f54      0x1e8 c:/program files/atollic/truestudio for stm32 9.0.1/armtools/bin/../lib/gcc/arm-atollic-eabi/6.3.1/../../../../arm-atollic-eabi/lib/armv7e-m/fpu\libc_nano.a(lib_a-nano-svfprintf.o)
                0x08016f54                _svfiprintf_r
                0x08016f54                _svfprintf_r
 .text._printf_common
                0x0801713c       0xec c:/program files/atollic/truestudio for stm32 9.0.1/armtools/bin/../lib/gcc/arm-atollic-eabi/6.3.1/../../../../arm-atollic-eabi/lib/armv7e-m/fpu\libc_nano.a(lib_a-nano-vfprintf_i.o)
                0x0801713c                _printf_common
 .text._printf_i
                0x08017228      0x240 c:/program files/atollic/truestudio for stm32 9.0.1/armtools/bin/../lib/gcc/arm-atollic-eabi/6.3.1/../../../../arm-atollic-eabi/lib/armv7e-m/fpu\libc_nano.a(lib_a-nano-vfprintf_i.o)
                0x08017228                _printf_i
 .text._free_r  0x08017468       0x9c c:/program files/atollic/truestudio for stm32 9.0.1/armtools/bin/../lib/gcc/arm-atollic-eabi/6.3.1/../../../../arm-atollic-eabi/lib/armv7e-m/fpu\libc_nano.a(lib_a-nano-freer.o)
                0x08017468                _free_r
 .text._malloc_r
                0x08017504       0xbc c:/program files/atollic/truestudio for stm32 9.0.1/armtools/bin/../lib/gcc/arm-atollic-eabi/6.3.1/../../../../arm-atollic-eabi/lib/armv7e-m/fpu\libc_nano.a(lib_a-nano-mallocr.o)
                0x08017504                _malloc_r
 .text._realloc_r
                0x080175c0       0x4c c:/program files/atollic/truestudio for stm32 9.0.1/armtools/bin/../lib/gcc/arm-atollic-eabi/6.3.1/../../../../arm-atollic-eabi/lib/armv7e-m/fpu\libc_nano.a(lib_a-nano-reallocr.o)
                0x080175c0                _realloc_r
 .text.__malloc_lock
                0x0801760c        0x2 c:/program files/atollic/truestudio for stm32 9.0.1/armtools/bin/../lib/gcc/arm-atollic-eabi/6.3.1/../../../../arm-atollic-eabi/lib/armv7e-m/fpu\libc_nano.a(lib_a-mlock.o)
                0x0801760c                __malloc_lock
 .text.__malloc_unlock
                0x0801760e        0x2 c:/program files/atollic/truestudio for stm32 9.0.1/armtools/bin/../lib/gcc/arm-atollic-eabi/6.3.1/../../../../arm-atollic-eabi/lib/armv7e-m/fpu\libc_nano.a(lib_a-mlock.o)
                0x0801760e                __malloc_unlock
 .text._malloc_usable_size_r
                0x08017610       0x12 c:/program files/atollic/truestudio for stm32 9.0.1/armtools/bin/../lib/gcc/arm-atollic-eabi/6.3.1/../../../../arm-atollic-eabi/lib/armv7e-m/fpu\libc_nano.a(lib_a-nano-msizer.o)
                0x08017610                _malloc_usable_size_r
 *(.glue_7)
 .glue_7        0x08017622        0x0 linker stubs
 *(.glue_7t)
 .glue_7t       0x08017622        0x0 linker stubs
 *(.eh_frame)
 *fill*         0x08017622        0x2 
 .eh_frame      0x08017624        0x0 c:/program files/atollic/truestudio for stm32 9.0.1/armtools/bin/../lib/gcc/arm-atollic-eabi/6.3.1/armv7e-m/fpu/crtbegin.o
 .eh_frame      0x08017624        0x4 c:/program files/atollic/truestudio for stm32 9.0.1/armtools/bin/../lib/gcc/arm-atollic-eabi/6.3.1/armv7e-m/fpu/crtend.o
 *(.init)
 .init          0x08017628        0x4 c:/program files/atollic/truestudio for stm32 9.0.1/armtools/bin/../lib/gcc/arm-atollic-eabi/6.3.1/armv7e-m/fpu/crti.o
                0x08017628                _init
 .init          0x0801762c        0x8 c:/program files/atollic/truestudio for stm32 9.0.1/armtools/bin/../lib/gcc/arm-atollic-eabi/6.3.1/armv7e-m/fpu/crtn.o
 *(.fini)
 .fini          0x08017634        0x4 c:/program files/atollic/truestudio for stm32 9.0.1/armtools/bin/../lib/gcc/arm-atollic-eabi/6.3.1/armv7e-m/fpu/crti.o
                0x08017634                _fini
 .fini          0x08017638        0x8 c:/program files/atollic/truestudio for stm32 9.0.1/armtools/bin/../lib/gcc/arm-atollic-eabi/6.3.1/armv7e-m/fpu/crtn.o
 .fini.__stub   0x08017640        0x8 linker stubs
                0x08017648                . = ALIGN (0x4)
                0x08017648                _etext = .

.vfp11_veneer   0x08017648        0x0
 .vfp11_veneer  0x08017648        0x0 linker stubs

.v4_bx          0x08017648        0x0
 .v4_bx         0x08017648        0x0 linker stubs

.iplt           0x08017648        0x0
 .iplt          0x08017648        0x0 c:/program files/atollic/truestudio for stm32 9.0.1/armtools/bin/../lib/gcc/arm-atollic-eabi/6.3.1/armv7e-m/fpu/crtbegin.o

.rodata         0x08017648    0x54640
                0x08017648                . = ALIGN (0x4)
 *(.rodata)
 .rodata        0x08017648      0x506 helix\mp3tabs.o
                0x08017648                xmp3fixpt_samplerateTab
                0x0801766c                xmp3fixpt_bitrateTab
                0x0801777c                xmp3fixpt_samplesPerFrameTab
                0x08017790                xmp3fixpt_bitsPerSlotTab
                0x08017798                xmp3fixpt_sideBytesTab
                0x080177a4                xmp3fixpt_slotTab
                0x080178b4                xmp3fixpt_sfBandTable
 *fill*         0x08017b4e        0x2 
 .rodata        0x08017b50       0xc0 helix\real\dct32.o
 .rodata        0x08017c10      0x250 helix\real\dqchan.o
 .rodata        0x08017e60     0x2304 helix\real\hufftabs.o
                0x08017e60                xmp3fixpt_huffTable
                0x08019f84                xmp3fixpt_huffTabOffset
                0x0801a004                xmp3fixpt_huffTabLookup
                0x0801a104                xmp3fixpt_quadTable
                0x0801a154                xmp3fixpt_quadTabOffset
                0x0801a15c                xmp3fixpt_quadTabMaxBits
 .rodata        0x0801a164       0x90 helix\real\imdct.o
 .rodata        0x0801a1f4       0x68 helix\real\scalfact.o
 .rodata        0x0801a25c      0x86c helix\real\trigtabs_fixpt.o
                0x0801a25c                xmp3fixpt_imdctWin
                0x0801a49c                xmp3fixpt_ISFMpeg1
                0x0801a4d4                xmp3fixpt_ISFMpeg2
                0x0801a5d4                xmp3fixpt_ISFIIP
                0x0801a5e4                xmp3fixpt_uniqueIDTab
                0x0801a5ec                xmp3fixpt_csa
                0x0801a62c                xmp3fixpt_coef32
                0x0801a6a8                xmp3fixpt_polyCoef
 .rodata        0x0801aac8    0x5114b src\mp3_data.o
                0x0801aac8                mp3_data
 *fill*         0x0806bc13        0x1 
 .rodata        0x0806bc14        0xd src\utils.o
 *(.rodata*)
 .rodata.powf.str1.1
                0x0806bc21        0x5 c:/program files/atollic/truestudio for stm32 9.0.1/armtools/bin/../lib/gcc/arm-atollic-eabi/6.3.1/../../../../arm-atollic-eabi/lib/armv7e-m/fpu\libm.a(lib_a-wf_pow.o)
 .rodata.__ieee754_powf.str1.1
                0x0806bc26        0x5 c:/program files/atollic/truestudio for stm32 9.0.1/armtools/bin/../lib/gcc/arm-atollic-eabi/6.3.1/../../../../arm-atollic-eabi/lib/armv7e-m/fpu\libm.a(lib_a-ef_pow.o)
                                  0x1 (size before relaxing)
 *fill*         0x0806bc26        0x2 
 .rodata.bp     0x0806bc28        0x8 c:/program files/atollic/truestudio for stm32 9.0.1/armtools/bin/../lib/gcc/arm-atollic-eabi/6.3.1/../../../../arm-atollic-eabi/lib/armv7e-m/fpu\libm.a(lib_a-ef_pow.o)
 .rodata.dp_h   0x0806bc30        0x8 c:/program files/atollic/truestudio for stm32 9.0.1/armtools/bin/../lib/gcc/arm-atollic-eabi/6.3.1/../../../../arm-atollic-eabi/lib/armv7e-m/fpu\libm.a(lib_a-ef_pow.o)
 .rodata.dp_l   0x0806bc38        0x8 c:/program files/atollic/truestudio for stm32 9.0.1/armtools/bin/../lib/gcc/arm-atollic-eabi/6.3.1/../../../../arm-atollic-eabi/lib/armv7e-m/fpu\libm.a(lib_a-ef_pow.o)
 .rodata.TWO52  0x0806bc40       0x10 c:/program files/atollic/truestudio for stm32 9.0.1/armtools/bin/../lib/gcc/arm-atollic-eabi/6.3.1/../../../../arm-atollic-eabi/lib/armv7e-m/fpu\libm.a(lib_a-s_rint.o)
 .rodata._global_impure_ptr
                0x0806bc50        0x4 c:/program files/atollic/truestudio for stm32 9.0.1/armtools/bin/../lib/gcc/arm-atollic-eabi/6.3.1/../../../../arm-atollic-eabi/lib/armv7e-m/fpu\libc_nano.a(lib_a-impure.o)
                0x0806bc50                _global_impure_ptr
 .rodata._svfprintf_r.str1.1
                0x0806bc54       0x11 c:/program files/atollic/truestudio for stm32 9.0.1/armtools/bin/../lib/gcc/arm-atollic-eabi/6.3.1/../../../../arm-atollic-eabi/lib/armv7e-m/fpu\libc_nano.a(lib_a-nano-svfprintf.o)
 .rodata._printf_i.str1.1
                0x0806bc65       0x22 c:/program files/atollic/truestudio for stm32 9.0.1/armtools/bin/../lib/gcc/arm-atollic-eabi/6.3.1/../../../../arm-atollic-eabi/lib/armv7e-m/fpu\libc_nano.a(lib_a-nano-vfprintf_i.o)
                0x0806bc88                . = ALIGN (0x4)
 *fill*         0x0806bc87        0x1 

.rel.dyn        0x0806bc88        0x0
 .rel.iplt      0x0806bc88        0x0 c:/program files/atollic/truestudio for stm32 9.0.1/armtools/bin/../lib/gcc/arm-atollic-eabi/6.3.1/armv7e-m/fpu/crtbegin.o

.ARM.extab
 *(.ARM.extab* .gnu.linkonce.armextab.*)

.ARM            0x0806bc88        0x0
                0x0806bc88                __exidx_start = .
 *(.ARM.exidx*)
                0x0806bc88                __exidx_end = .

.preinit_array  0x0806bc88        0x0
                0x0806bc88                PROVIDE (__preinit_array_start, .)
 *(.preinit_array*)
                0x0806bc88                PROVIDE (__preinit_array_end, .)

.init_array     0x0806bc88        0x4
                0x0806bc88                PROVIDE (__init_array_start, .)
 *(SORT(.init_array.*))
 *(.init_array*)
 .init_array    0x0806bc88        0x4 c:/program files/atollic/truestudio for stm32 9.0.1/armtools/bin/../lib/gcc/arm-atollic-eabi/6.3.1/armv7e-m/fpu/crtbegin.o
                0x0806bc8c                PROVIDE (__init_array_end, .)

.fini_array     0x0806bc8c        0x4
                [!provide]                PROVIDE (__fini_array_start, .)
 *(SORT(.fini_array.*))
 *(.fini_array*)
 .fini_array    0x0806bc8c        0x4 c:/program files/atollic/truestudio for stm32 9.0.1/armtools/bin/../lib/gcc/arm-atollic-eabi/6.3.1/armv7e-m/fpu/crtbegin.o
                [!provide]                PROVIDE (__fini_array_end, .)
                0x0806bc90                _sidata = LOADADDR (.data)

.data           0x20000000       0x98 load address 0x0806bc90
                0x20000000                . = ALIGN (0x4)
                0x20000000                _sdata = .
 *(.data)
 .data          0x20000000        0x0 c:/program files/atollic/truestudio for stm32 9.0.1/armtools/bin/../lib/gcc/arm-atollic-eabi/6.3.1/armv7e-m/fpu/crti.o
 .data          0x20000000        0x4 c:/program files/atollic/truestudio for stm32 9.0.1/armtools/bin/../lib/gcc/arm-atollic-eabi/6.3.1/armv7e-m/fpu/crtbegin.o
                0x20000000                __dso_handle
 .data          0x20000004        0x0 helix\mp3dec.o
 .data          0x20000004        0x0 helix\mp3tabs.o
 .data          0x20000004        0x0 helix\real\bitstream.o
 .data          0x20000004        0x0 helix\real\buffers.o
 .data          0x20000004        0x0 helix\real\dct32.o
 .data          0x20000004        0x0 helix\real\dequant.o
 .data          0x20000004        0x0 helix\real\dqchan.o
 .data          0x20000004        0x0 helix\real\huffman.o
 .data          0x20000004        0x0 helix\real\hufftabs.o
 .data          0x20000004        0x0 helix\real\imdct.o
 .data          0x20000004        0x0 helix\real\polyphase.o
 .data          0x20000004        0x0 helix\real\scalfact.o
 .data          0x20000004        0x0 helix\real\stproc.o
 .data          0x20000004        0x0 helix\real\subband.o
 .data          0x20000004        0x0 helix\real\trigtabs_fixpt.o
 .data          0x20000004        0x0 lib\src\peripherals\misc.o
 .data          0x20000004        0x0 lib\src\peripherals\stm32f4xx_adc.o
 .data          0x20000004        0x0 lib\src\peripherals\stm32f4xx_can.o
 .data          0x20000004        0x0 lib\src\peripherals\stm32f4xx_crc.o
 .data          0x20000004        0x0 lib\src\peripherals\stm32f4xx_cryp.o
 .data          0x20000004        0x0 lib\src\peripherals\stm32f4xx_cryp_aes.o
 .data          0x20000004        0x0 lib\src\peripherals\stm32f4xx_cryp_des.o
 .data          0x20000004        0x0 lib\src\peripherals\stm32f4xx_cryp_tdes.o
 .data          0x20000004        0x0 lib\src\peripherals\stm32f4xx_dac.o
 .data          0x20000004        0x0 lib\src\peripherals\stm32f4xx_dbgmcu.o
 .data          0x20000004        0x0 lib\src\peripherals\stm32f4xx_dcmi.o
 .data          0x20000004        0x0 lib\src\peripherals\stm32f4xx_dma.o
 .data          0x20000004        0x0 lib\src\peripherals\stm32f4xx_exti.o
 .data          0x20000004        0x0 lib\src\peripherals\stm32f4xx_flash.o
 .data          0x20000004        0x0 lib\src\peripherals\stm32f4xx_fsmc.o
 .data          0x20000004        0x0 lib\src\peripherals\stm32f4xx_gpio.o
 .data          0x20000004        0x0 lib\src\peripherals\stm32f4xx_hash.o
 .data          0x20000004        0x0 lib\src\peripherals\stm32f4xx_hash_md5.o
 .data          0x20000004        0x0 lib\src\peripherals\stm32f4xx_hash_sha1.o
 .data          0x20000004        0x0 lib\src\peripherals\stm32f4xx_i2c.o
 .data          0x20000004        0x0 lib\src\peripherals\stm32f4xx_iwdg.o
 .data          0x20000004        0x0 lib\src\peripherals\stm32f4xx_pwr.o
 .data          0x20000004       0x10 lib\src\peripherals\stm32f4xx_rcc.o
 .data          0x20000014        0x0 lib\src\peripherals\stm32f4xx_rng.o
 .data          0x20000014        0x0 lib\src\peripherals\stm32f4xx_rtc.o
 .data          0x20000014        0x0 lib\src\peripherals\stm32f4xx_sdio.o
 .data          0x20000014        0x0 lib\src\peripherals\stm32f4xx_spi.o
 .data          0x20000014        0x0 lib\src\peripherals\stm32f4xx_syscfg.o
 .data          0x20000014        0x0 lib\src\peripherals\stm32f4xx_tim.o
 .data          0x20000014        0x0 lib\src\peripherals\stm32f4xx_usart.o
 .data          0x20000014        0x0 lib\src\peripherals\stm32f4xx_wwdg.o
 .data          0x20000014        0x0 lib\startup_stm32f4xx.o
 .data          0x20000014        0x0 src\Audio.o
 .data          0x20000014        0x8 src\main.o
 .data          0x2000001c        0x0 src\mp3_data.o
 .data          0x2000001c        0x0 src\stm32f4xx_it.o
 .data          0x2000001c        0x0 src\syscalls.o
 .data          0x2000001c       0x14 src\system_stm32f4xx.o
                0x2000001c                SystemCoreClock
                0x20000020                AHBPrescTable
 .data          0x20000030        0x0 src\utils.o
 .data          0x20000030        0x0 c:/program files/atollic/truestudio for stm32 9.0.1/armtools/bin/../lib/gcc/arm-atollic-eabi/6.3.1/../../../../arm-atollic-eabi/lib/armv7e-m/fpu\libm.a(lib_a-sf_floor.o)
 .data          0x20000030        0x0 c:/program files/atollic/truestudio for stm32 9.0.1/armtools/bin/../lib/gcc/arm-atollic-eabi/6.3.1/../../../../arm-atollic-eabi/lib/armv7e-m/fpu\libm.a(lib_a-wf_pow.o)
 .data          0x20000030        0x0 c:/program files/atollic/truestudio for stm32 9.0.1/armtools/bin/../lib/gcc/arm-atollic-eabi/6.3.1/../../../../arm-atollic-eabi/lib/armv7e-m/fpu\libm.a(lib_a-ef_pow.o)
 .data          0x20000030        0x0 c:/program files/atollic/truestudio for stm32 9.0.1/armtools/bin/../lib/gcc/arm-atollic-eabi/6.3.1/../../../../arm-atollic-eabi/lib/armv7e-m/fpu\libm.a(lib_a-ef_sqrt.o)
 .data          0x20000030        0x0 c:/program files/atollic/truestudio for stm32 9.0.1/armtools/bin/../lib/gcc/arm-atollic-eabi/6.3.1/../../../../arm-atollic-eabi/lib/armv7e-m/fpu\libm.a(lib_a-s_lib_ver.o)
 .data          0x20000030        0x0 c:/program files/atollic/truestudio for stm32 9.0.1/armtools/bin/../lib/gcc/arm-atollic-eabi/6.3.1/../../../../arm-atollic-eabi/lib/armv7e-m/fpu\libm.a(lib_a-s_matherr.o)
 .data          0x20000030        0x0 c:/program files/atollic/truestudio for stm32 9.0.1/armtools/bin/../lib/gcc/arm-atollic-eabi/6.3.1/../../../../arm-atollic-eabi/lib/armv7e-m/fpu\libm.a(lib_a-s_rint.o)
 .data          0x20000030        0x0 c:/program files/atollic/truestudio for stm32 9.0.1/armtools/bin/../lib/gcc/arm-atollic-eabi/6.3.1/../../../../arm-atollic-eabi/lib/armv7e-m/fpu\libm.a(lib_a-sf_fabs.o)
 .data          0x20000030        0x0 c:/program files/atollic/truestudio for stm32 9.0.1/armtools/bin/../lib/gcc/arm-atollic-eabi/6.3.1/../../../../arm-atollic-eabi/lib/armv7e-m/fpu\libm.a(lib_a-sf_finite.o)
 .data          0x20000030        0x0 c:/program files/atollic/truestudio for stm32 9.0.1/armtools/bin/../lib/gcc/arm-atollic-eabi/6.3.1/../../../../arm-atollic-eabi/lib/armv7e-m/fpu\libm.a(lib_a-sf_nan.o)
 .data          0x20000030        0x0 c:/program files/atollic/truestudio for stm32 9.0.1/armtools/bin/../lib/gcc/arm-atollic-eabi/6.3.1/../../../../arm-atollic-eabi/lib/armv7e-m/fpu\libm.a(lib_a-sf_scalbn.o)
 .data          0x20000030        0x0 c:/program files/atollic/truestudio for stm32 9.0.1/armtools/bin/../lib/gcc/arm-atollic-eabi/6.3.1/../../../../arm-atollic-eabi/lib/armv7e-m/fpu\libm.a(lib_a-sf_copysign.o)
 .data          0x20000030        0x0 c:/program files/atollic/truestudio for stm32 9.0.1/armtools/bin/../lib/gcc/arm-atollic-eabi/6.3.1/../../../../arm-atollic-eabi/lib/armv7e-m/fpu\libc_nano.a(lib_a-init.o)
 .data          0x20000030        0x0 c:/program files/atollic/truestudio for stm32 9.0.1/armtools/bin/../lib/gcc/arm-atollic-eabi/6.3.1/../../../../arm-atollic-eabi/lib/armv7e-m/fpu\libc_nano.a(lib_a-memcpy-stub.o)
 .data          0x20000030        0x0 c:/program files/atollic/truestudio for stm32 9.0.1/armtools/bin/../lib/gcc/arm-atollic-eabi/6.3.1/../../../../arm-atollic-eabi/lib/armv7e-m/fpu\libc_nano.a(lib_a-memmove.o)
 .data          0x20000030        0x0 c:/program files/atollic/truestudio for stm32 9.0.1/armtools/bin/../lib/gcc/arm-atollic-eabi/6.3.1/../../../../arm-atollic-eabi/lib/armv7e-m/fpu\libc_nano.a(lib_a-sprintf.o)
 .data          0x20000030        0x0 c:/program files/atollic/truestudio for stm32 9.0.1/armtools/bin/../lib/gcc/arm-atollic-eabi/6.3.1/../../../../arm-atollic-eabi/lib/armv7e-m/fpu\libc_nano.a(lib_a-impure.o)
 .data          0x20000030        0x0 c:/program files/atollic/truestudio for stm32 9.0.1/armtools/bin/../lib/gcc/arm-atollic-eabi/6.3.1/../../../../arm-atollic-eabi/lib/armv7e-m/fpu\libc_nano.a(lib_a-nano-svfprintf.o)
 .data          0x20000030        0x0 c:/program files/atollic/truestudio for stm32 9.0.1/armtools/bin/../lib/gcc/arm-atollic-eabi/6.3.1/../../../../arm-atollic-eabi/lib/armv7e-m/fpu\libc_nano.a(lib_a-nano-vfprintf_i.o)
 .data          0x20000030        0x0 c:/program files/atollic/truestudio for stm32 9.0.1/armtools/bin/../lib/gcc/arm-atollic-eabi/6.3.1/../../../../arm-atollic-eabi/lib/armv7e-m/fpu\libc_nano.a(lib_a-memchr.o)
 .data          0x20000030        0x0 c:/program files/atollic/truestudio for stm32 9.0.1/armtools/bin/../lib/gcc/arm-atollic-eabi/6.3.1/../../../../arm-atollic-eabi/lib/armv7e-m/fpu\libc_nano.a(lib_a-nano-freer.o)
 .data          0x20000030        0x0 c:/program files/atollic/truestudio for stm32 9.0.1/armtools/bin/../lib/gcc/arm-atollic-eabi/6.3.1/../../../../arm-atollic-eabi/lib/armv7e-m/fpu\libc_nano.a(lib_a-nano-mallocr.o)
 .data          0x20000030        0x0 c:/program files/atollic/truestudio for stm32 9.0.1/armtools/bin/../lib/gcc/arm-atollic-eabi/6.3.1/../../../../arm-atollic-eabi/lib/armv7e-m/fpu\libc_nano.a(lib_a-nano-reallocr.o)
 .data          0x20000030        0x0 c:/program files/atollic/truestudio for stm32 9.0.1/armtools/bin/../lib/gcc/arm-atollic-eabi/6.3.1/../../../../arm-atollic-eabi/lib/armv7e-m/fpu\libc_nano.a(lib_a-mlock.o)
 .data          0x20000030        0x0 c:/program files/atollic/truestudio for stm32 9.0.1/armtools/bin/../lib/gcc/arm-atollic-eabi/6.3.1/../../../../arm-atollic-eabi/lib/armv7e-m/fpu\libc_nano.a(lib_a-nano-msizer.o)
 .data          0x20000030        0x0 c:/program files/atollic/truestudio for stm32 9.0.1/armtools/bin/../lib/gcc/arm-atollic-eabi/6.3.1/armv7e-m/fpu\libgcc.a(_arm_addsubdf3.o)
 .data          0x20000030        0x0 c:/program files/atollic/truestudio for stm32 9.0.1/armtools/bin/../lib/gcc/arm-atollic-eabi/6.3.1/armv7e-m/fpu\libgcc.a(_arm_muldivdf3.o)
 .data          0x20000030        0x0 c:/program files/atollic/truestudio for stm32 9.0.1/armtools/bin/../lib/gcc/arm-atollic-eabi/6.3.1/armv7e-m/fpu\libgcc.a(_arm_cmpdf2.o)
 .data          0x20000030        0x0 c:/program files/atollic/truestudio for stm32 9.0.1/armtools/bin/../lib/gcc/arm-atollic-eabi/6.3.1/armv7e-m/fpu\libgcc.a(_arm_truncdfsf2.o)
 .data          0x20000030        0x0 c:/program files/atollic/truestudio for stm32 9.0.1/armtools/bin/../lib/gcc/arm-atollic-eabi/6.3.1/armv7e-m/fpu/crtend.o
 .data          0x20000030        0x0 c:/program files/atollic/truestudio for stm32 9.0.1/armtools/bin/../lib/gcc/arm-atollic-eabi/6.3.1/armv7e-m/fpu/crtn.o
 *(.data*)
 .data.__fdlib_version
                0x20000030        0x1 c:/program files/atollic/truestudio for stm32 9.0.1/armtools/bin/../lib/gcc/arm-atollic-eabi/6.3.1/../../../../arm-atollic-eabi/lib/armv7e-m/fpu\libm.a(lib_a-s_lib_ver.o)
                0x20000030                __fdlib_version
 *fill*         0x20000031        0x3 
 .data._impure_ptr
                0x20000034        0x4 c:/program files/atollic/truestudio for stm32 9.0.1/armtools/bin/../lib/gcc/arm-atollic-eabi/6.3.1/../../../../arm-atollic-eabi/lib/armv7e-m/fpu\libc_nano.a(lib_a-impure.o)
                0x20000034                _impure_ptr
 .data.impure_data
                0x20000038       0x60 c:/program files/atollic/truestudio for stm32 9.0.1/armtools/bin/../lib/gcc/arm-atollic-eabi/6.3.1/../../../../arm-atollic-eabi/lib/armv7e-m/fpu\libc_nano.a(lib_a-impure.o)
                0x20000098                . = ALIGN (0x4)
                0x20000098                _edata = .
                0x0806bd28                _siccmram = LOADADDR (.ccmram)

.igot.plt       0x20000098        0x0 load address 0x0806bd28
 .igot.plt      0x20000098        0x0 c:/program files/atollic/truestudio for stm32 9.0.1/armtools/bin/../lib/gcc/arm-atollic-eabi/6.3.1/armv7e-m/fpu/crtbegin.o

.ccmram         0x10000000        0x0 load address 0x0806bd28
                0x10000000                . = ALIGN (0x4)
                0x10000000                _sccmram = .
 *(.ccmram)
 *(.ccmram*)
                0x10000000                . = ALIGN (0x4)
                0x10000000                _eccmram = .
                0x10000000                . = ALIGN (0x4)

.bss            0x20000098     0x9dd8
                0x20000098                _sbss = .
                0x20000098                __bss_start__ = _sbss
 *(.bss)
 .bss           0x20000098        0x0 c:/program files/atollic/truestudio for stm32 9.0.1/armtools/bin/../lib/gcc/arm-atollic-eabi/6.3.1/armv7e-m/fpu/crti.o
 .bss           0x20000098       0x1c c:/program files/atollic/truestudio for stm32 9.0.1/armtools/bin/../lib/gcc/arm-atollic-eabi/6.3.1/armv7e-m/fpu/crtbegin.o
 .bss           0x200000b4        0x0 helix\mp3dec.o
 .bss           0x200000b4        0x0 helix\mp3tabs.o
 .bss           0x200000b4        0x0 helix\real\bitstream.o
 .bss           0x200000b4     0x5d08 helix\real\buffers.o
 .bss           0x20005dbc        0x0 helix\real\dct32.o
 .bss           0x20005dbc        0x0 helix\real\dequant.o
 .bss           0x20005dbc        0x0 helix\real\dqchan.o
 .bss           0x20005dbc        0x0 helix\real\huffman.o
 .bss           0x20005dbc        0x0 helix\real\hufftabs.o
 .bss           0x20005dbc        0x0 helix\real\imdct.o
 .bss           0x20005dbc        0x0 helix\real\polyphase.o
 .bss           0x20005dbc        0x0 helix\real\scalfact.o
 .bss           0x20005dbc        0x0 helix\real\stproc.o
 .bss           0x20005dbc        0x0 helix\real\subband.o
 .bss           0x20005dbc        0x0 helix\real\trigtabs_fixpt.o
 .bss           0x20005dbc        0x0 lib\src\peripherals\misc.o
 .bss           0x20005dbc        0x0 lib\src\peripherals\stm32f4xx_adc.o
 .bss           0x20005dbc        0x0 lib\src\peripherals\stm32f4xx_can.o
 .bss           0x20005dbc        0x0 lib\src\peripherals\stm32f4xx_crc.o
 .bss           0x20005dbc        0x0 lib\src\peripherals\stm32f4xx_cryp.o
 .bss           0x20005dbc        0x0 lib\src\peripherals\stm32f4xx_cryp_aes.o
 .bss           0x20005dbc        0x0 lib\src\peripherals\stm32f4xx_cryp_des.o
 .bss           0x20005dbc        0x0 lib\src\peripherals\stm32f4xx_cryp_tdes.o
 .bss           0x20005dbc        0x0 lib\src\peripherals\stm32f4xx_dac.o
 .bss           0x20005dbc        0x0 lib\src\peripherals\stm32f4xx_dbgmcu.o
 .bss           0x20005dbc        0x0 lib\src\peripherals\stm32f4xx_dcmi.o
 .bss           0x20005dbc        0x0 lib\src\peripherals\stm32f4xx_dma.o
 .bss           0x20005dbc        0x0 lib\src\peripherals\stm32f4xx_exti.o
 .bss           0x20005dbc        0x0 lib\src\peripherals\stm32f4xx_flash.o
 .bss           0x20005dbc        0x0 lib\src\peripherals\stm32f4xx_fsmc.o
 .bss           0x20005dbc        0x0 lib\src\peripherals\stm32f4xx_gpio.o
 .bss           0x20005dbc        0x0 lib\src\peripherals\stm32f4xx_hash.o
 .bss           0x20005dbc        0x0 lib\src\peripherals\stm32f4xx_hash_md5.o
 .bss           0x20005dbc        0x0 lib\src\peripherals\stm32f4xx_hash_sha1.o
 .bss           0x20005dbc        0x0 lib\src\peripherals\stm32f4xx_i2c.o
 .bss           0x20005dbc        0x0 lib\src\peripherals\stm32f4xx_iwdg.o
 .bss           0x20005dbc        0x0 lib\src\peripherals\stm32f4xx_pwr.o
 .bss           0x20005dbc        0x0 lib\src\peripherals\stm32f4xx_rcc.o
 .bss           0x20005dbc        0x0 lib\src\peripherals\stm32f4xx_rng.o
 .bss           0x20005dbc        0x0 lib\src\peripherals\stm32f4xx_rtc.o
 .bss           0x20005dbc        0x0 lib\src\peripherals\stm32f4xx_sdio.o
 .bss           0x20005dbc        0x0 lib\src\peripherals\stm32f4xx_spi.o
 .bss           0x20005dbc        0x0 lib\src\peripherals\stm32f4xx_syscfg.o
 .bss           0x20005dbc        0x0 lib\src\peripherals\stm32f4xx_tim.o
 .bss           0x20005dbc        0x0 lib\src\peripherals\stm32f4xx_usart.o
 .bss           0x20005dbc        0x0 lib\src\peripherals\stm32f4xx_wwdg.o
 .bss           0x20005dbc        0x0 lib\startup_stm32f4xx.o
 .bss           0x20005dbc       0x15 src\Audio.o
 *fill*         0x20005dd1        0x3 
 .bss           0x20005dd4     0x4000 src\main.o
 .bss           0x20009dd4        0x0 src\mp3_data.o
 .bss           0x20009dd4        0x0 src\stm32f4xx_it.o
 .bss           0x20009dd4        0x4 src\syscalls.o
 .bss           0x20009dd8        0x0 src\system_stm32f4xx.o
 .bss           0x20009dd8       0x64 src\utils.o
 .bss           0x20009e3c        0x0 c:/program files/atollic/truestudio for stm32 9.0.1/armtools/bin/../lib/gcc/arm-atollic-eabi/6.3.1/../../../../arm-atollic-eabi/lib/armv7e-m/fpu\libm.a(lib_a-sf_floor.o)
 .bss           0x20009e3c        0x0 c:/program files/atollic/truestudio for stm32 9.0.1/armtools/bin/../lib/gcc/arm-atollic-eabi/6.3.1/../../../../arm-atollic-eabi/lib/armv7e-m/fpu\libm.a(lib_a-wf_pow.o)
 .bss           0x20009e3c        0x0 c:/program files/atollic/truestudio for stm32 9.0.1/armtools/bin/../lib/gcc/arm-atollic-eabi/6.3.1/../../../../arm-atollic-eabi/lib/armv7e-m/fpu\libm.a(lib_a-ef_pow.o)
 .bss           0x20009e3c        0x0 c:/program files/atollic/truestudio for stm32 9.0.1/armtools/bin/../lib/gcc/arm-atollic-eabi/6.3.1/../../../../arm-atollic-eabi/lib/armv7e-m/fpu\libm.a(lib_a-ef_sqrt.o)
 .bss           0x20009e3c        0x0 c:/program files/atollic/truestudio for stm32 9.0.1/armtools/bin/../lib/gcc/arm-atollic-eabi/6.3.1/../../../../arm-atollic-eabi/lib/armv7e-m/fpu\libm.a(lib_a-s_lib_ver.o)
 .bss           0x20009e3c        0x0 c:/program files/atollic/truestudio for stm32 9.0.1/armtools/bin/../lib/gcc/arm-atollic-eabi/6.3.1/../../../../arm-atollic-eabi/lib/armv7e-m/fpu\libm.a(lib_a-s_matherr.o)
 .bss           0x20009e3c        0x0 c:/program files/atollic/truestudio for stm32 9.0.1/armtools/bin/../lib/gcc/arm-atollic-eabi/6.3.1/../../../../arm-atollic-eabi/lib/armv7e-m/fpu\libm.a(lib_a-s_rint.o)
 .bss           0x20009e3c        0x0 c:/program files/atollic/truestudio for stm32 9.0.1/armtools/bin/../lib/gcc/arm-atollic-eabi/6.3.1/../../../../arm-atollic-eabi/lib/armv7e-m/fpu\libm.a(lib_a-sf_fabs.o)
 .bss           0x20009e3c        0x0 c:/program files/atollic/truestudio for stm32 9.0.1/armtools/bin/../lib/gcc/arm-atollic-eabi/6.3.1/../../../../arm-atollic-eabi/lib/armv7e-m/fpu\libm.a(lib_a-sf_finite.o)
 .bss           0x20009e3c        0x0 c:/program files/atollic/truestudio for stm32 9.0.1/armtools/bin/../lib/gcc/arm-atollic-eabi/6.3.1/../../../../arm-atollic-eabi/lib/armv7e-m/fpu\libm.a(lib_a-sf_nan.o)
 .bss           0x20009e3c        0x0 c:/program files/atollic/truestudio for stm32 9.0.1/armtools/bin/../lib/gcc/arm-atollic-eabi/6.3.1/../../../../arm-atollic-eabi/lib/armv7e-m/fpu\libm.a(lib_a-sf_scalbn.o)
 .bss           0x20009e3c        0x0 c:/program files/atollic/truestudio for stm32 9.0.1/armtools/bin/../lib/gcc/arm-atollic-eabi/6.3.1/../../../../arm-atollic-eabi/lib/armv7e-m/fpu\libm.a(lib_a-sf_copysign.o)
 .bss           0x20009e3c        0x0 c:/program files/atollic/truestudio for stm32 9.0.1/armtools/bin/../lib/gcc/arm-atollic-eabi/6.3.1/../../../../arm-atollic-eabi/lib/armv7e-m/fpu\libc_nano.a(lib_a-init.o)
 .bss           0x20009e3c        0x0 c:/program files/atollic/truestudio for stm32 9.0.1/armtools/bin/../lib/gcc/arm-atollic-eabi/6.3.1/../../../../arm-atollic-eabi/lib/armv7e-m/fpu\libc_nano.a(lib_a-memcpy-stub.o)
 .bss           0x20009e3c        0x0 c:/program files/atollic/truestudio for stm32 9.0.1/armtools/bin/../lib/gcc/arm-atollic-eabi/6.3.1/../../../../arm-atollic-eabi/lib/armv7e-m/fpu\libc_nano.a(lib_a-memmove.o)
 .bss           0x20009e3c        0x0 c:/program files/atollic/truestudio for stm32 9.0.1/armtools/bin/../lib/gcc/arm-atollic-eabi/6.3.1/../../../../arm-atollic-eabi/lib/armv7e-m/fpu\libc_nano.a(lib_a-sprintf.o)
 .bss           0x20009e3c        0x0 c:/program files/atollic/truestudio for stm32 9.0.1/armtools/bin/../lib/gcc/arm-atollic-eabi/6.3.1/../../../../arm-atollic-eabi/lib/armv7e-m/fpu\libc_nano.a(lib_a-impure.o)
 .bss           0x20009e3c        0x0 c:/program files/atollic/truestudio for stm32 9.0.1/armtools/bin/../lib/gcc/arm-atollic-eabi/6.3.1/../../../../arm-atollic-eabi/lib/armv7e-m/fpu\libc_nano.a(lib_a-nano-svfprintf.o)
 .bss           0x20009e3c        0x0 c:/program files/atollic/truestudio for stm32 9.0.1/armtools/bin/../lib/gcc/arm-atollic-eabi/6.3.1/../../../../arm-atollic-eabi/lib/armv7e-m/fpu\libc_nano.a(lib_a-nano-vfprintf_i.o)
 .bss           0x20009e3c        0x0 c:/program files/atollic/truestudio for stm32 9.0.1/armtools/bin/../lib/gcc/arm-atollic-eabi/6.3.1/../../../../arm-atollic-eabi/lib/armv7e-m/fpu\libc_nano.a(lib_a-memchr.o)
 .bss           0x20009e3c        0x0 c:/program files/atollic/truestudio for stm32 9.0.1/armtools/bin/../lib/gcc/arm-atollic-eabi/6.3.1/../../../../arm-atollic-eabi/lib/armv7e-m/fpu\libc_nano.a(lib_a-nano-freer.o)
 .bss           0x20009e3c        0x0 c:/program files/atollic/truestudio for stm32 9.0.1/armtools/bin/../lib/gcc/arm-atollic-eabi/6.3.1/../../../../arm-atollic-eabi/lib/armv7e-m/fpu\libc_nano.a(lib_a-nano-mallocr.o)
 .bss           0x20009e3c        0x0 c:/program files/atollic/truestudio for stm32 9.0.1/armtools/bin/../lib/gcc/arm-atollic-eabi/6.3.1/../../../../arm-atollic-eabi/lib/armv7e-m/fpu\libc_nano.a(lib_a-nano-reallocr.o)
 .bss           0x20009e3c        0x0 c:/program files/atollic/truestudio for stm32 9.0.1/armtools/bin/../lib/gcc/arm-atollic-eabi/6.3.1/../../../../arm-atollic-eabi/lib/armv7e-m/fpu\libc_nano.a(lib_a-mlock.o)
 .bss           0x20009e3c        0x0 c:/program files/atollic/truestudio for stm32 9.0.1/armtools/bin/../lib/gcc/arm-atollic-eabi/6.3.1/../../../../arm-atollic-eabi/lib/armv7e-m/fpu\libc_nano.a(lib_a-nano-msizer.o)
 .bss           0x20009e3c        0x0 c:/program files/atollic/truestudio for stm32 9.0.1/armtools/bin/../lib/gcc/arm-atollic-eabi/6.3.1/armv7e-m/fpu\libgcc.a(_arm_addsubdf3.o)
 .bss           0x20009e3c        0x0 c:/program files/atollic/truestudio for stm32 9.0.1/armtools/bin/../lib/gcc/arm-atollic-eabi/6.3.1/armv7e-m/fpu\libgcc.a(_arm_muldivdf3.o)
 .bss           0x20009e3c        0x0 c:/program files/atollic/truestudio for stm32 9.0.1/armtools/bin/../lib/gcc/arm-atollic-eabi/6.3.1/armv7e-m/fpu\libgcc.a(_arm_cmpdf2.o)
 .bss           0x20009e3c        0x0 c:/program files/atollic/truestudio for stm32 9.0.1/armtools/bin/../lib/gcc/arm-atollic-eabi/6.3.1/armv7e-m/fpu\libgcc.a(_arm_truncdfsf2.o)
 .bss           0x20009e3c        0x0 c:/program files/atollic/truestudio for stm32 9.0.1/armtools/bin/../lib/gcc/arm-atollic-eabi/6.3.1/armv7e-m/fpu/crtend.o
 .bss           0x20009e3c        0x0 c:/program files/atollic/truestudio for stm32 9.0.1/armtools/bin/../lib/gcc/arm-atollic-eabi/6.3.1/armv7e-m/fpu/crtn.o
 *(.bss*)
 .bss.__malloc_free_list
                0x20009e3c        0x4 c:/program files/atollic/truestudio for stm32 9.0.1/armtools/bin/../lib/gcc/arm-atollic-eabi/6.3.1/../../../../arm-atollic-eabi/lib/armv7e-m/fpu\libc_nano.a(lib_a-nano-mallocr.o)
                0x20009e3c                __malloc_free_list
 .bss.__malloc_sbrk_start
                0x20009e40        0x4 c:/program files/atollic/truestudio for stm32 9.0.1/armtools/bin/../lib/gcc/arm-atollic-eabi/6.3.1/../../../../arm-atollic-eabi/lib/armv7e-m/fpu\libc_nano.a(lib_a-nano-mallocr.o)
                0x20009e40                __malloc_sbrk_start
 *(COMMON)
 COMMON         0x20009e44       0x28 src\main.o
                0x20009e44                time_var1
                0x20009e48                hMP3Decoder
                0x20009e4c                time_var2
                0x20009e50                mp3FrameInfo
 COMMON         0x20009e6c        0x4 src\syscalls.o
                0x20009e6c                __errno
                0x20009e70                . = ALIGN (0x4)
                0x20009e70                _ebss = .
                0x20009e70                __bss_end__ = _ebss

._user_heap_stack
                0x20009e70      0x400
                0x20009e70                . = ALIGN (0x4)
                0x20009e70                PROVIDE (end, .)
                [!provide]                PROVIDE (_end, .)
                0x20009e70                . = (. + _Min_Heap_Size)
                0x2000a270                . = (. + _Min_Stack_Size)
 *fill*         0x20009e70      0x400 
                0x2000a270                . = ALIGN (0x4)

.memory_b1_text
 *(.mb1text)
 *(.mb1text*)
 *(.mb1rodata)
 *(.mb1rodata*)

/DISCARD/
 libc.a(*)
 libm.a(*)
 libgcc.a(*)

.ARM.attributes
                0x00000000       0x30
 *(.ARM.attributes)
 .ARM.attributes
                0x00000000       0x22 c:/program files/atollic/truestudio for stm32 9.0.1/armtools/bin/../lib/gcc/arm-atollic-eabi/6.3.1/armv7e-m/fpu/crti.o
 .ARM.attributes
                0x00000022       0x34 c:/program files/atollic/truestudio for stm32 9.0.1/armtools/bin/../lib/gcc/arm-atollic-eabi/6.3.1/armv7e-m/fpu/crtbegin.o
 .ARM.attributes
                0x00000056       0x39 helix\mp3dec.o
 .ARM.attributes
                0x0000008f       0x39 helix\mp3tabs.o
 .ARM.attributes
                0x000000c8       0x39 helix\real\bitstream.o
 .ARM.attributes
                0x00000101       0x39 helix\real\buffers.o
 .ARM.attributes
                0x0000013a       0x39 helix\real\dct32.o
 .ARM.attributes
                0x00000173       0x39 helix\real\dequant.o
 .ARM.attributes
                0x000001ac       0x39 helix\real\dqchan.o
 .ARM.attributes
                0x000001e5       0x39 helix\real\huffman.o
 .ARM.attributes
                0x0000021e       0x39 helix\real\hufftabs.o
 .ARM.attributes
                0x00000257       0x39 helix\real\imdct.o
 .ARM.attributes
                0x00000290       0x39 helix\real\polyphase.o
 .ARM.attributes
                0x000002c9       0x39 helix\real\scalfact.o
 .ARM.attributes
                0x00000302       0x39 helix\real\stproc.o
 .ARM.attributes
                0x0000033b       0x39 helix\real\subband.o
 .ARM.attributes
                0x00000374       0x39 helix\real\trigtabs_fixpt.o
 .ARM.attributes
                0x000003ad       0x39 lib\src\peripherals\misc.o
 .ARM.attributes
                0x000003e6       0x39 lib\src\peripherals\stm32f4xx_adc.o
 .ARM.attributes
                0x0000041f       0x39 lib\src\peripherals\stm32f4xx_can.o
 .ARM.attributes
                0x00000458       0x39 lib\src\peripherals\stm32f4xx_crc.o
 .ARM.attributes
                0x00000491       0x39 lib\src\peripherals\stm32f4xx_cryp.o
 .ARM.attributes
                0x000004ca       0x39 lib\src\peripherals\stm32f4xx_cryp_aes.o
 .ARM.attributes
                0x00000503       0x39 lib\src\peripherals\stm32f4xx_cryp_des.o
 .ARM.attributes
                0x0000053c       0x39 lib\src\peripherals\stm32f4xx_cryp_tdes.o
 .ARM.attributes
                0x00000575       0x39 lib\src\peripherals\stm32f4xx_dac.o
 .ARM.attributes
                0x000005ae       0x39 lib\src\peripherals\stm32f4xx_dbgmcu.o
 .ARM.attributes
                0x000005e7       0x39 lib\src\peripherals\stm32f4xx_dcmi.o
 .ARM.attributes
                0x00000620       0x39 lib\src\peripherals\stm32f4xx_dma.o
 .ARM.attributes
                0x00000659       0x39 lib\src\peripherals\stm32f4xx_exti.o
 .ARM.attributes
                0x00000692       0x39 lib\src\peripherals\stm32f4xx_flash.o
 .ARM.attributes
                0x000006cb       0x39 lib\src\peripherals\stm32f4xx_fsmc.o
 .ARM.attributes
                0x00000704       0x39 lib\src\peripherals\stm32f4xx_gpio.o
 .ARM.attributes
                0x0000073d       0x39 lib\src\peripherals\stm32f4xx_hash.o
 .ARM.attributes
                0x00000776       0x39 lib\src\peripherals\stm32f4xx_hash_md5.o
 .ARM.attributes
                0x000007af       0x39 lib\src\peripherals\stm32f4xx_hash_sha1.o
 .ARM.attributes
                0x000007e8       0x39 lib\src\peripherals\stm32f4xx_i2c.o
 .ARM.attributes
                0x00000821       0x39 lib\src\peripherals\stm32f4xx_iwdg.o
 .ARM.attributes
                0x0000085a       0x39 lib\src\peripherals\stm32f4xx_pwr.o
 .ARM.attributes
                0x00000893       0x39 lib\src\peripherals\stm32f4xx_rcc.o
 .ARM.attributes
                0x000008cc       0x39 lib\src\peripherals\stm32f4xx_rng.o
 .ARM.attributes
                0x00000905       0x39 lib\src\peripherals\stm32f4xx_rtc.o
 .ARM.attributes
                0x0000093e       0x39 lib\src\peripherals\stm32f4xx_sdio.o
 .ARM.attributes
                0x00000977       0x39 lib\src\peripherals\stm32f4xx_spi.o
 .ARM.attributes
                0x000009b0       0x39 lib\src\peripherals\stm32f4xx_syscfg.o
 .ARM.attributes
                0x000009e9       0x39 lib\src\peripherals\stm32f4xx_tim.o
 .ARM.attributes
                0x00000a22       0x39 lib\src\peripherals\stm32f4xx_usart.o
 .ARM.attributes
                0x00000a5b       0x39 lib\src\peripherals\stm32f4xx_wwdg.o
 .ARM.attributes
                0x00000a94       0x21 lib\startup_stm32f4xx.o
 .ARM.attributes
                0x00000ab5       0x39 src\Audio.o
 .ARM.attributes
                0x00000aee       0x39 src\main.o
 .ARM.attributes
                0x00000b27       0x39 src\mp3_data.o
 .ARM.attributes
                0x00000b60       0x39 src\stm32f4xx_it.o
 .ARM.attributes
                0x00000b99       0x39 src\syscalls.o
 .ARM.attributes
                0x00000bd2       0x39 src\system_stm32f4xx.o
 .ARM.attributes
                0x00000c0b       0x39 src\utils.o
 .ARM.attributes
                0x00000c44       0x34 c:/program files/atollic/truestudio for stm32 9.0.1/armtools/bin/../lib/gcc/arm-atollic-eabi/6.3.1/../../../../arm-atollic-eabi/lib/armv7e-m/fpu\libm.a(lib_a-sf_floor.o)
 .ARM.attributes
                0x00000c78       0x34 c:/program files/atollic/truestudio for stm32 9.0.1/armtools/bin/../lib/gcc/arm-atollic-eabi/6.3.1/../../../../arm-atollic-eabi/lib/armv7e-m/fpu\libm.a(lib_a-wf_pow.o)
 .ARM.attributes
                0x00000cac       0x34 c:/program files/atollic/truestudio for stm32 9.0.1/armtools/bin/../lib/gcc/arm-atollic-eabi/6.3.1/../../../../arm-atollic-eabi/lib/armv7e-m/fpu\libm.a(lib_a-ef_pow.o)
 .ARM.attributes
                0x00000ce0       0x34 c:/program files/atollic/truestudio for stm32 9.0.1/armtools/bin/../lib/gcc/arm-atollic-eabi/6.3.1/../../../../arm-atollic-eabi/lib/armv7e-m/fpu\libm.a(lib_a-ef_sqrt.o)
 .ARM.attributes
                0x00000d14       0x34 c:/program files/atollic/truestudio for stm32 9.0.1/armtools/bin/../lib/gcc/arm-atollic-eabi/6.3.1/../../../../arm-atollic-eabi/lib/armv7e-m/fpu\libm.a(lib_a-s_lib_ver.o)
 .ARM.attributes
                0x00000d48       0x34 c:/program files/atollic/truestudio for stm32 9.0.1/armtools/bin/../lib/gcc/arm-atollic-eabi/6.3.1/../../../../arm-atollic-eabi/lib/armv7e-m/fpu\libm.a(lib_a-s_matherr.o)
 .ARM.attributes
                0x00000d7c       0x34 c:/program files/atollic/truestudio for stm32 9.0.1/armtools/bin/../lib/gcc/arm-atollic-eabi/6.3.1/../../../../arm-atollic-eabi/lib/armv7e-m/fpu\libm.a(lib_a-s_rint.o)
 .ARM.attributes
                0x00000db0       0x34 c:/program files/atollic/truestudio for stm32 9.0.1/armtools/bin/../lib/gcc/arm-atollic-eabi/6.3.1/../../../../arm-atollic-eabi/lib/armv7e-m/fpu\libm.a(lib_a-sf_fabs.o)
 .ARM.attributes
                0x00000de4       0x34 c:/program files/atollic/truestudio for stm32 9.0.1/armtools/bin/../lib/gcc/arm-atollic-eabi/6.3.1/../../../../arm-atollic-eabi/lib/armv7e-m/fpu\libm.a(lib_a-sf_finite.o)
 .ARM.attributes
                0x00000e18       0x34 c:/program files/atollic/truestudio for stm32 9.0.1/armtools/bin/../lib/gcc/arm-atollic-eabi/6.3.1/../../../../arm-atollic-eabi/lib/armv7e-m/fpu\libm.a(lib_a-sf_nan.o)
 .ARM.attributes
                0x00000e4c       0x34 c:/program files/atollic/truestudio for stm32 9.0.1/armtools/bin/../lib/gcc/arm-atollic-eabi/6.3.1/../../../../arm-atollic-eabi/lib/armv7e-m/fpu\libm.a(lib_a-sf_scalbn.o)
 .ARM.attributes
                0x00000e80       0x34 c:/program files/atollic/truestudio for stm32 9.0.1/armtools/bin/../lib/gcc/arm-atollic-eabi/6.3.1/../../../../arm-atollic-eabi/lib/armv7e-m/fpu\libm.a(lib_a-sf_copysign.o)
 .ARM.attributes
                0x00000eb4       0x34 c:/program files/atollic/truestudio for stm32 9.0.1/armtools/bin/../lib/gcc/arm-atollic-eabi/6.3.1/../../../../arm-atollic-eabi/lib/armv7e-m/fpu\libc_nano.a(lib_a-init.o)
 .ARM.attributes
                0x00000ee8       0x34 c:/program files/atollic/truestudio for stm32 9.0.1/armtools/bin/../lib/gcc/arm-atollic-eabi/6.3.1/../../../../arm-atollic-eabi/lib/armv7e-m/fpu\libc_nano.a(lib_a-memcpy-stub.o)
 .ARM.attributes
                0x00000f1c       0x34 c:/program files/atollic/truestudio for stm32 9.0.1/armtools/bin/../lib/gcc/arm-atollic-eabi/6.3.1/../../../../arm-atollic-eabi/lib/armv7e-m/fpu\libc_nano.a(lib_a-memmove.o)
 .ARM.attributes
                0x00000f50       0x34 c:/program files/atollic/truestudio for stm32 9.0.1/armtools/bin/../lib/gcc/arm-atollic-eabi/6.3.1/../../../../arm-atollic-eabi/lib/armv7e-m/fpu\libc_nano.a(lib_a-sprintf.o)
 .ARM.attributes
                0x00000f84       0x34 c:/program files/atollic/truestudio for stm32 9.0.1/armtools/bin/../lib/gcc/arm-atollic-eabi/6.3.1/../../../../arm-atollic-eabi/lib/armv7e-m/fpu\libc_nano.a(lib_a-impure.o)
 .ARM.attributes
                0x00000fb8       0x34 c:/program files/atollic/truestudio for stm32 9.0.1/armtools/bin/../lib/gcc/arm-atollic-eabi/6.3.1/../../../../arm-atollic-eabi/lib/armv7e-m/fpu\libc_nano.a(lib_a-nano-svfprintf.o)
 .ARM.attributes
                0x00000fec       0x34 c:/program files/atollic/truestudio for stm32 9.0.1/armtools/bin/../lib/gcc/arm-atollic-eabi/6.3.1/../../../../arm-atollic-eabi/lib/armv7e-m/fpu\libc_nano.a(lib_a-nano-vfprintf_i.o)
 .ARM.attributes
                0x00001020       0x20 c:/program files/atollic/truestudio for stm32 9.0.1/armtools/bin/../lib/gcc/arm-atollic-eabi/6.3.1/../../../../arm-atollic-eabi/lib/armv7e-m/fpu\libc_nano.a(lib_a-memchr.o)
 .ARM.attributes
                0x00001040       0x34 c:/program files/atollic/truestudio for stm32 9.0.1/armtools/bin/../lib/gcc/arm-atollic-eabi/6.3.1/../../../../arm-atollic-eabi/lib/armv7e-m/fpu\libc_nano.a(lib_a-nano-freer.o)
 .ARM.attributes
                0x00001074       0x34 c:/program files/atollic/truestudio for stm32 9.0.1/armtools/bin/../lib/gcc/arm-atollic-eabi/6.3.1/../../../../arm-atollic-eabi/lib/armv7e-m/fpu\libc_nano.a(lib_a-nano-mallocr.o)
 .ARM.attributes
                0x000010a8       0x34 c:/program files/atollic/truestudio for stm32 9.0.1/armtools/bin/../lib/gcc/arm-atollic-eabi/6.3.1/../../../../arm-atollic-eabi/lib/armv7e-m/fpu\libc_nano.a(lib_a-nano-reallocr.o)
 .ARM.attributes
                0x000010dc       0x34 c:/program files/atollic/truestudio for stm32 9.0.1/armtools/bin/../lib/gcc/arm-atollic-eabi/6.3.1/../../../../arm-atollic-eabi/lib/armv7e-m/fpu\libc_nano.a(lib_a-mlock.o)
 .ARM.attributes
                0x00001110       0x34 c:/program files/atollic/truestudio for stm32 9.0.1/armtools/bin/../lib/gcc/arm-atollic-eabi/6.3.1/../../../../arm-atollic-eabi/lib/armv7e-m/fpu\libc_nano.a(lib_a-nano-msizer.o)
 .ARM.attributes
                0x00001144       0x22 c:/program files/atollic/truestudio for stm32 9.0.1/armtools/bin/../lib/gcc/arm-atollic-eabi/6.3.1/armv7e-m/fpu\libgcc.a(_arm_addsubdf3.o)
 .ARM.attributes
                0x00001166       0x22 c:/program files/atollic/truestudio for stm32 9.0.1/armtools/bin/../lib/gcc/arm-atollic-eabi/6.3.1/armv7e-m/fpu\libgcc.a(_arm_muldivdf3.o)
 .ARM.attributes
                0x00001188       0x22 c:/program files/atollic/truestudio for stm32 9.0.1/armtools/bin/../lib/gcc/arm-atollic-eabi/6.3.1/armv7e-m/fpu\libgcc.a(_arm_cmpdf2.o)
 .ARM.attributes
                0x000011aa       0x22 c:/program files/atollic/truestudio for stm32 9.0.1/armtools/bin/../lib/gcc/arm-atollic-eabi/6.3.1/armv7e-m/fpu\libgcc.a(_arm_truncdfsf2.o)
 .ARM.attributes
                0x000011cc       0x34 c:/program files/atollic/truestudio for stm32 9.0.1/armtools/bin/../lib/gcc/arm-atollic-eabi/6.3.1/armv7e-m/fpu/crtend.o
 .ARM.attributes
                0x00001200       0x22 c:/program files/atollic/truestudio for stm32 9.0.1/armtools/bin/../lib/gcc/arm-atollic-eabi/6.3.1/armv7e-m/fpu/crtn.o
OUTPUT(STM32F4_Discovery_MP3.elf elf32-littlearm)

.debug_info     0x00000000    0x1da66
 .debug_info    0x00000000      0xf35 helix\mp3dec.o
 .debug_info    0x00000f35      0x210 helix\mp3tabs.o
 .debug_info    0x00001145      0xa70 helix\real\bitstream.o
 .debug_info    0x00001bb5     0x1430 helix\real\buffers.o
 .debug_info    0x00002fe5      0x64f helix\real\dct32.o
 .debug_info    0x00003634      0xaaa helix\real\dequant.o
 .debug_info    0x000040de      0xa8b helix\real\dqchan.o
 .debug_info    0x00004b69      0xcc1 helix\real\huffman.o
 .debug_info    0x0000582a      0x44c helix\real\hufftabs.o
 .debug_info    0x00005c76     0x1574 helix\real\imdct.o
 .debug_info    0x000071ea      0x6ed helix\real\polyphase.o
 .debug_info    0x000078d7      0xbf9 helix\real\scalfact.o
 .debug_info    0x000084d0      0xab4 helix\real\stproc.o
 .debug_info    0x00008f84      0x73f helix\real\subband.o
 .debug_info    0x000096c3      0x47b helix\real\trigtabs_fixpt.o
 .debug_info    0x00009b3e      0x54d lib\src\peripherals\misc.o
 .debug_info    0x0000a08b      0xc4f lib\src\peripherals\stm32f4xx_adc.o
 .debug_info    0x0000acda      0xbaf lib\src\peripherals\stm32f4xx_can.o
 .debug_info    0x0000b889      0x217 lib\src\peripherals\stm32f4xx_crc.o
 .debug_info    0x0000baa0      0x732 lib\src\peripherals\stm32f4xx_cryp.o
 .debug_info    0x0000c1d2     0x116d lib\src\peripherals\stm32f4xx_cryp_aes.o
 .debug_info    0x0000d33f      0x56d lib\src\peripherals\stm32f4xx_cryp_des.o
 .debug_info    0x0000d8ac      0x6ec lib\src\peripherals\stm32f4xx_cryp_tdes.o
 .debug_info    0x0000df98      0x654 lib\src\peripherals\stm32f4xx_dac.o
 .debug_info    0x0000e5ec      0x1ef lib\src\peripherals\stm32f4xx_dbgmcu.o
 .debug_info    0x0000e7db      0x563 lib\src\peripherals\stm32f4xx_dcmi.o
 .debug_info    0x0000ed3e      0x74c lib\src\peripherals\stm32f4xx_dma.o
 .debug_info    0x0000f48a      0x366 lib\src\peripherals\stm32f4xx_exti.o
 .debug_info    0x0000f7f0      0x732 lib\src\peripherals\stm32f4xx_flash.o
 .debug_info    0x0000ff22      0x908 lib\src\peripherals\stm32f4xx_fsmc.o
 .debug_info    0x0001082a      0x628 lib\src\peripherals\stm32f4xx_gpio.o
 .debug_info    0x00010e52      0x575 lib\src\peripherals\stm32f4xx_hash.o
 .debug_info    0x000113c7      0x505 lib\src\peripherals\stm32f4xx_hash_md5.o
 .debug_info    0x000118cc      0x565 lib\src\peripherals\stm32f4xx_hash_sha1.o
 .debug_info    0x00011e31      0xb0b lib\src\peripherals\stm32f4xx_i2c.o
 .debug_info    0x0001293c      0x219 lib\src\peripherals\stm32f4xx_iwdg.o
 .debug_info    0x00012b55      0x528 lib\src\peripherals\stm32f4xx_pwr.o
 .debug_info    0x0001307d      0xc72 lib\src\peripherals\stm32f4xx_rcc.o
 .debug_info    0x00013cef      0x296 lib\src\peripherals\stm32f4xx_rng.o
 .debug_info    0x00013f85     0x10f6 lib\src\peripherals\stm32f4xx_rtc.o
 .debug_info    0x0001507b      0x80c lib\src\peripherals\stm32f4xx_sdio.o
 .debug_info    0x00015887      0xb1a lib\src\peripherals\stm32f4xx_spi.o
 .debug_info    0x000163a1      0x283 lib\src\peripherals\stm32f4xx_syscfg.o
 .debug_info    0x00016624     0x1c74 lib\src\peripherals\stm32f4xx_tim.o
 .debug_info    0x00018298      0x9d5 lib\src\peripherals\stm32f4xx_usart.o
 .debug_info    0x00018c6d      0x25b lib\src\peripherals\stm32f4xx_wwdg.o
 .debug_info    0x00018ec8       0x7d lib\startup_stm32f4xx.o
 .debug_info    0x00018f45     0x17a5 src\Audio.o
 .debug_info    0x0001a6ea     0x148b src\main.o
 .debug_info    0x0001bb75       0x5a src\mp3_data.o
 .debug_info    0x0001bbcf      0x154 src\stm32f4xx_it.o
 .debug_info    0x0001bd23      0xe00 src\syscalls.o
 .debug_info    0x0001cb23      0x5d0 src\system_stm32f4xx.o
 .debug_info    0x0001d0f3      0x973 src\utils.o

.debug_abbrev   0x00000000     0x55b0
 .debug_abbrev  0x00000000      0x2c0 helix\mp3dec.o
 .debug_abbrev  0x000002c0       0x88 helix\mp3tabs.o
 .debug_abbrev  0x00000348      0x200 helix\real\bitstream.o
 .debug_abbrev  0x00000548      0x227 helix\real\buffers.o
 .debug_abbrev  0x0000076f      0x170 helix\real\dct32.o
 .debug_abbrev  0x000008df      0x1ae helix\real\dequant.o
 .debug_abbrev  0x00000a8d      0x1ae helix\real\dqchan.o
 .debug_abbrev  0x00000c3b      0x1db helix\real\huffman.o
 .debug_abbrev  0x00000e16       0xdd helix\real\hufftabs.o
 .debug_abbrev  0x00000ef3      0x26b helix\real\imdct.o
 .debug_abbrev  0x0000115e      0x1e4 helix\real\polyphase.o
 .debug_abbrev  0x00001342      0x1c6 helix\real\scalfact.o
 .debug_abbrev  0x00001508      0x192 helix\real\stproc.o
 .debug_abbrev  0x0000169a      0x15a helix\real\subband.o
 .debug_abbrev  0x000017f4       0xee helix\real\trigtabs_fixpt.o
 .debug_abbrev  0x000018e2      0x172 lib\src\peripherals\misc.o
 .debug_abbrev  0x00001a54      0x1ab lib\src\peripherals\stm32f4xx_adc.o
 .debug_abbrev  0x00001bff      0x206 lib\src\peripherals\stm32f4xx_can.o
 .debug_abbrev  0x00001e05      0x127 lib\src\peripherals\stm32f4xx_crc.o
 .debug_abbrev  0x00001f2c      0x1a5 lib\src\peripherals\stm32f4xx_cryp.o
 .debug_abbrev  0x000020d1      0x1e9 lib\src\peripherals\stm32f4xx_cryp_aes.o
 .debug_abbrev  0x000022ba      0x171 lib\src\peripherals\stm32f4xx_cryp_des.o
 .debug_abbrev  0x0000242b      0x171 lib\src\peripherals\stm32f4xx_cryp_tdes.o
 .debug_abbrev  0x0000259c      0x191 lib\src\peripherals\stm32f4xx_dac.o
 .debug_abbrev  0x0000272d       0xf3 lib\src\peripherals\stm32f4xx_dbgmcu.o
 .debug_abbrev  0x00002820      0x19c lib\src\peripherals\stm32f4xx_dcmi.o
 .debug_abbrev  0x000029bc      0x168 lib\src\peripherals\stm32f4xx_dma.o
 .debug_abbrev  0x00002b24      0x1bc lib\src\peripherals\stm32f4xx_exti.o
 .debug_abbrev  0x00002ce0      0x1dd lib\src\peripherals\stm32f4xx_flash.o
 .debug_abbrev  0x00002ebd      0x19d lib\src\peripherals\stm32f4xx_fsmc.o
 .debug_abbrev  0x0000305a      0x1b8 lib\src\peripherals\stm32f4xx_gpio.o
 .debug_abbrev  0x00003212      0x1de lib\src\peripherals\stm32f4xx_hash.o
 .debug_abbrev  0x000033f0      0x1a3 lib\src\peripherals\stm32f4xx_hash_md5.o
 .debug_abbrev  0x00003593      0x1a3 lib\src\peripherals\stm32f4xx_hash_sha1.o
 .debug_abbrev  0x00003736      0x191 lib\src\peripherals\stm32f4xx_i2c.o
 .debug_abbrev  0x000038c7      0x12e lib\src\peripherals\stm32f4xx_iwdg.o
 .debug_abbrev  0x000039f5      0x194 lib\src\peripherals\stm32f4xx_pwr.o
 .debug_abbrev  0x00003b89      0x1f8 lib\src\peripherals\stm32f4xx_rcc.o
 .debug_abbrev  0x00003d81      0x159 lib\src\peripherals\stm32f4xx_rng.o
 .debug_abbrev  0x00003eda      0x1dd lib\src\peripherals\stm32f4xx_rtc.o
 .debug_abbrev  0x000040b7      0x18c lib\src\peripherals\stm32f4xx_sdio.o
 .debug_abbrev  0x00004243      0x17a lib\src\peripherals\stm32f4xx_spi.o
 .debug_abbrev  0x000043bd      0x146 lib\src\peripherals\stm32f4xx_syscfg.o
 .debug_abbrev  0x00004503      0x19a lib\src\peripherals\stm32f4xx_tim.o
 .debug_abbrev  0x0000469d      0x182 lib\src\peripherals\stm32f4xx_usart.o
 .debug_abbrev  0x0000481f      0x155 lib\src\peripherals\stm32f4xx_wwdg.o
 .debug_abbrev  0x00004974       0x12 lib\startup_stm32f4xx.o
 .debug_abbrev  0x00004986      0x311 src\Audio.o
 .debug_abbrev  0x00004c97      0x2f1 src\main.o
 .debug_abbrev  0x00004f88       0x45 src\mp3_data.o
 .debug_abbrev  0x00004fcd       0x90 src\stm32f4xx_it.o
 .debug_abbrev  0x0000505d      0x24f src\syscalls.o
 .debug_abbrev  0x000052ac      0x158 src\system_stm32f4xx.o
 .debug_abbrev  0x00005404      0x1ac src\utils.o

.debug_aranges  0x00000000      0x6a8
 .debug_aranges
                0x00000000       0x20 helix\mp3dec.o
 .debug_aranges
                0x00000020       0x18 helix\mp3tabs.o
 .debug_aranges
                0x00000038       0x20 helix\real\bitstream.o
 .debug_aranges
                0x00000058       0x20 helix\real\buffers.o
 .debug_aranges
                0x00000078       0x20 helix\real\dct32.o
 .debug_aranges
                0x00000098       0x20 helix\real\dequant.o
 .debug_aranges
                0x000000b8       0x20 helix\real\dqchan.o
 .debug_aranges
                0x000000d8       0x20 helix\real\huffman.o
 .debug_aranges
                0x000000f8       0x18 helix\real\hufftabs.o
 .debug_aranges
                0x00000110       0x20 helix\real\imdct.o
 .debug_aranges
                0x00000130       0x20 helix\real\polyphase.o
 .debug_aranges
                0x00000150       0x20 helix\real\scalfact.o
 .debug_aranges
                0x00000170       0x20 helix\real\stproc.o
 .debug_aranges
                0x00000190       0x20 helix\real\subband.o
 .debug_aranges
                0x000001b0       0x18 helix\real\trigtabs_fixpt.o
 .debug_aranges
                0x000001c8       0x20 lib\src\peripherals\misc.o
 .debug_aranges
                0x000001e8       0x20 lib\src\peripherals\stm32f4xx_adc.o
 .debug_aranges
                0x00000208       0x20 lib\src\peripherals\stm32f4xx_can.o
 .debug_aranges
                0x00000228       0x20 lib\src\peripherals\stm32f4xx_crc.o
 .debug_aranges
                0x00000248       0x20 lib\src\peripherals\stm32f4xx_cryp.o
 .debug_aranges
                0x00000268       0x20 lib\src\peripherals\stm32f4xx_cryp_aes.o
 .debug_aranges
                0x00000288       0x20 lib\src\peripherals\stm32f4xx_cryp_des.o
 .debug_aranges
                0x000002a8       0x20 lib\src\peripherals\stm32f4xx_cryp_tdes.o
 .debug_aranges
                0x000002c8       0x20 lib\src\peripherals\stm32f4xx_dac.o
 .debug_aranges
                0x000002e8       0x20 lib\src\peripherals\stm32f4xx_dbgmcu.o
 .debug_aranges
                0x00000308       0x20 lib\src\peripherals\stm32f4xx_dcmi.o
 .debug_aranges
                0x00000328       0x20 lib\src\peripherals\stm32f4xx_dma.o
 .debug_aranges
                0x00000348       0x20 lib\src\peripherals\stm32f4xx_exti.o
 .debug_aranges
                0x00000368       0x20 lib\src\peripherals\stm32f4xx_flash.o
 .debug_aranges
                0x00000388       0x20 lib\src\peripherals\stm32f4xx_fsmc.o
 .debug_aranges
                0x000003a8       0x20 lib\src\peripherals\stm32f4xx_gpio.o
 .debug_aranges
                0x000003c8       0x20 lib\src\peripherals\stm32f4xx_hash.o
 .debug_aranges
                0x000003e8       0x20 lib\src\peripherals\stm32f4xx_hash_md5.o
 .debug_aranges
                0x00000408       0x20 lib\src\peripherals\stm32f4xx_hash_sha1.o
 .debug_aranges
                0x00000428       0x20 lib\src\peripherals\stm32f4xx_i2c.o
 .debug_aranges
                0x00000448       0x20 lib\src\peripherals\stm32f4xx_iwdg.o
 .debug_aranges
                0x00000468       0x20 lib\src\peripherals\stm32f4xx_pwr.o
 .debug_aranges
                0x00000488       0x20 lib\src\peripherals\stm32f4xx_rcc.o
 .debug_aranges
                0x000004a8       0x20 lib\src\peripherals\stm32f4xx_rng.o
 .debug_aranges
                0x000004c8       0x20 lib\src\peripherals\stm32f4xx_rtc.o
 .debug_aranges
                0x000004e8       0x20 lib\src\peripherals\stm32f4xx_sdio.o
 .debug_aranges
                0x00000508       0x20 lib\src\peripherals\stm32f4xx_spi.o
 .debug_aranges
                0x00000528       0x20 lib\src\peripherals\stm32f4xx_syscfg.o
 .debug_aranges
                0x00000548       0x20 lib\src\peripherals\stm32f4xx_tim.o
 .debug_aranges
                0x00000568       0x20 lib\src\peripherals\stm32f4xx_usart.o
 .debug_aranges
                0x00000588       0x20 lib\src\peripherals\stm32f4xx_wwdg.o
 .debug_aranges
                0x000005a8       0x28 lib\startup_stm32f4xx.o
 .debug_aranges
                0x000005d0       0x20 src\Audio.o
 .debug_aranges
                0x000005f0       0x20 src\main.o
 .debug_aranges
                0x00000610       0x18 src\mp3_data.o
 .debug_aranges
                0x00000628       0x20 src\stm32f4xx_it.o
 .debug_aranges
                0x00000648       0x20 src\syscalls.o
 .debug_aranges
                0x00000668       0x20 src\system_stm32f4xx.o
 .debug_aranges
                0x00000688       0x20 src\utils.o

.debug_line     0x00000000     0x9a66
 .debug_line    0x00000000      0x287 helix\mp3dec.o
 .debug_line    0x00000287       0x4f helix\mp3tabs.o
 .debug_line    0x000002d6      0x2c1 helix\real\bitstream.o
 .debug_line    0x00000597      0x22f helix\real\buffers.o
 .debug_line    0x000007c6      0x2e5 helix\real\dct32.o
 .debug_line    0x00000aab      0x14a helix\real\dequant.o
 .debug_line    0x00000bf5      0x224 helix\real\dqchan.o
 .debug_line    0x00000e19      0x27e helix\real\huffman.o
 .debug_line    0x00001097       0x68 helix\real\hufftabs.o
 .debug_line    0x000010ff      0x57f helix\real\imdct.o
 .debug_line    0x0000167e      0x20c helix\real\polyphase.o
 .debug_line    0x0000188a      0x294 helix\real\scalfact.o
 .debug_line    0x00001b1e      0x295 helix\real\stproc.o
 .debug_line    0x00001db3       0xe9 helix\real\subband.o
 .debug_line    0x00001e9c       0x6e helix\real\trigtabs_fixpt.o
 .debug_line    0x00001f0a      0x25f lib\src\peripherals\misc.o
 .debug_line    0x00002169      0x3ca lib\src\peripherals\stm32f4xx_adc.o
 .debug_line    0x00002533      0x47c lib\src\peripherals\stm32f4xx_can.o
 .debug_line    0x000029af      0x20c lib\src\peripherals\stm32f4xx_crc.o
 .debug_line    0x00002bbb      0x316 lib\src\peripherals\stm32f4xx_cryp.o
 .debug_line    0x00002ed1      0x71c lib\src\peripherals\stm32f4xx_cryp_aes.o
 .debug_line    0x000035ed      0x34e lib\src\peripherals\stm32f4xx_cryp_des.o
 .debug_line    0x0000393b      0x3c7 lib\src\peripherals\stm32f4xx_cryp_tdes.o
 .debug_line    0x00003d02      0x2d7 lib\src\peripherals\stm32f4xx_dac.o
 .debug_line    0x00003fd9      0x205 lib\src\peripherals\stm32f4xx_dbgmcu.o
 .debug_line    0x000041de      0x2d5 lib\src\peripherals\stm32f4xx_dcmi.o
 .debug_line    0x000044b3      0x39a lib\src\peripherals\stm32f4xx_dma.o
 .debug_line    0x0000484d      0x29b lib\src\peripherals\stm32f4xx_exti.o
 .debug_line    0x00004ae8      0x356 lib\src\peripherals\stm32f4xx_flash.o
 .debug_line    0x00004e3e      0x3f3 lib\src\peripherals\stm32f4xx_fsmc.o
 .debug_line    0x00005231      0x308 lib\src\peripherals\stm32f4xx_gpio.o
 .debug_line    0x00005539      0x2e5 lib\src\peripherals\stm32f4xx_hash.o
 .debug_line    0x0000581e      0x3ba lib\src\peripherals\stm32f4xx_hash_md5.o
 .debug_line    0x00005bd8      0x3d7 lib\src\peripherals\stm32f4xx_hash_sha1.o
 .debug_line    0x00005faf      0x39b lib\src\peripherals\stm32f4xx_i2c.o
 .debug_line    0x0000634a      0x206 lib\src\peripherals\stm32f4xx_iwdg.o
 .debug_line    0x00006550      0x260 lib\src\peripherals\stm32f4xx_pwr.o
 .debug_line    0x000067b0      0x3cc lib\src\peripherals\stm32f4xx_rcc.o
 .debug_line    0x00006b7c      0x21b lib\src\peripherals\stm32f4xx_rng.o
 .debug_line    0x00006d97      0x59d lib\src\peripherals\stm32f4xx_rtc.o
 .debug_line    0x00007334      0x30b lib\src\peripherals\stm32f4xx_sdio.o
 .debug_line    0x0000763f      0x370 lib\src\peripherals\stm32f4xx_spi.o
 .debug_line    0x000079af      0x20c lib\src\peripherals\stm32f4xx_syscfg.o
 .debug_line    0x00007bbb      0x671 lib\src\peripherals\stm32f4xx_tim.o
 .debug_line    0x0000822c      0x3a6 lib\src\peripherals\stm32f4xx_usart.o
 .debug_line    0x000085d2      0x215 lib\src\peripherals\stm32f4xx_wwdg.o
 .debug_line    0x000087e7       0x77 lib\startup_stm32f4xx.o
 .debug_line    0x0000885e      0x470 src\Audio.o
 .debug_line    0x00008cce      0x415 src\main.o
 .debug_line    0x000090e3       0x32 src\mp3_data.o
 .debug_line    0x00009115      0x1ef src\stm32f4xx_it.o
 .debug_line    0x00009304      0x317 src\syscalls.o
 .debug_line    0x0000961b      0x237 src\system_stm32f4xx.o
 .debug_line    0x00009852      0x214 src\utils.o

.debug_str      0x00000000     0x7d8d
 .debug_str     0x00000000      0x97a helix\mp3dec.o
                                0xa58 (size before relaxing)
 .debug_str     0x0000097a       0x13 helix\mp3tabs.o
                                0x23c (size before relaxing)
 .debug_str     0x0000098d      0x3d0 helix\real\bitstream.o
                                0x79e (size before relaxing)
 .debug_str     0x00000d5d      0x1a8 helix\real\buffers.o
                                0xc8f (size before relaxing)
 .debug_str     0x00000f05       0x51 helix\real\dct32.o
                                0x416 (size before relaxing)
 .debug_str     0x00000f56       0x3b helix\real\dequant.o
                                0x7a0 (size before relaxing)
 .debug_str     0x00000f91       0xee helix\real\dqchan.o
                                0x6ca (size before relaxing)
 .debug_str     0x0000107f       0xb4 helix\real\huffman.o
                                0x7fc (size before relaxing)
 .debug_str     0x00001133       0x19 helix\real\hufftabs.o
                                0x3d2 (size before relaxing)
 .debug_str     0x0000114c      0x182 helix\real\imdct.o
                                0x88a (size before relaxing)
 .debug_str     0x000012ce       0xb2 helix\real\polyphase.o
                                0x47a (size before relaxing)
 .debug_str     0x00001380       0x9a helix\real\scalfact.o
                                0x7de (size before relaxing)
 .debug_str     0x0000141a       0x9e helix\real\stproc.o
                                0x5de (size before relaxing)
 .debug_str     0x000014b8       0x31 helix\real\subband.o
                                0x5bb (size before relaxing)
 .debug_str     0x000014e9       0x35 helix\real\trigtabs_fixpt.o
                                0x3ee (size before relaxing)
 .debug_str     0x0000151e      0x28e lib\src\peripherals\misc.o
                                0x421 (size before relaxing)
 .debug_str     0x000017ac      0x62a lib\src\peripherals\stm32f4xx_adc.o
                                0x857 (size before relaxing)
 .debug_str     0x00001dd6      0x50c lib\src\peripherals\stm32f4xx_can.o
                                0x791 (size before relaxing)
 .debug_str     0x000022e2       0x9b lib\src\peripherals\stm32f4xx_crc.o
                                0x29e (size before relaxing)
 .debug_str     0x0000237d      0x399 lib\src\peripherals\stm32f4xx_cryp.o
                                0x610 (size before relaxing)
 .debug_str     0x00002716       0xf4 lib\src\peripherals\stm32f4xx_cryp_aes.o
                                0x43a (size before relaxing)
 .debug_str     0x0000280a       0x46 lib\src\peripherals\stm32f4xx_cryp_des.o
                                0x425 (size before relaxing)
 .debug_str     0x00002850       0x96 lib\src\peripherals\stm32f4xx_cryp_tdes.o
                                0x42b (size before relaxing)
 .debug_str     0x000028e6      0x25c lib\src\peripherals\stm32f4xx_dac.o
                                0x4a6 (size before relaxing)
 .debug_str     0x00002b42       0xba lib\src\peripherals\stm32f4xx_dbgmcu.o
                                0x293 (size before relaxing)
 .debug_str     0x00002bfc      0x2ee lib\src\peripherals\stm32f4xx_dcmi.o
                                0x52c (size before relaxing)
 .debug_str     0x00002eea      0x362 lib\src\peripherals\stm32f4xx_dma.o
                                0x595 (size before relaxing)
 .debug_str     0x0000324c      0x1ab lib\src\peripherals\stm32f4xx_exti.o
                                0x3ac (size before relaxing)
 .debug_str     0x000033f7      0x3a9 lib\src\peripherals\stm32f4xx_flash.o
                                0x5e5 (size before relaxing)
 .debug_str     0x000037a0      0x5b9 lib\src\peripherals\stm32f4xx_fsmc.o
                                0x7dd (size before relaxing)
 .debug_str     0x00003d59      0x2fb lib\src\peripherals\stm32f4xx_gpio.o
                                0x4f6 (size before relaxing)
 .debug_str     0x00004054      0x24e lib\src\peripherals\stm32f4xx_hash.o
                                0x485 (size before relaxing)
 .debug_str     0x000042a2       0x92 lib\src\peripherals\stm32f4xx_hash_md5.o
                                0x345 (size before relaxing)
 .debug_str     0x00004334       0x6c lib\src\peripherals\stm32f4xx_hash_sha1.o
                                0x34a (size before relaxing)
 .debug_str     0x000043a0      0x410 lib\src\peripherals\stm32f4xx_i2c.o
                                0x6b8 (size before relaxing)
 .debug_str     0x000047b0       0xc6 lib\src\peripherals\stm32f4xx_iwdg.o
                                0x2bf (size before relaxing)
 .debug_str     0x00004876      0x165 lib\src\peripherals\stm32f4xx_pwr.o
                                0x3e4 (size before relaxing)
 .debug_str     0x000049db      0x5a7 lib\src\peripherals\stm32f4xx_rcc.o
                                0x8a3 (size before relaxing)
 .debug_str     0x00004f82       0xbd lib\src\peripherals\stm32f4xx_rng.o
                                0x2cc (size before relaxing)
 .debug_str     0x0000503f      0x942 lib\src\peripherals\stm32f4xx_rtc.o
                                0xb9b (size before relaxing)
 .debug_str     0x00005981      0x464 lib\src\peripherals\stm32f4xx_sdio.o
                                0x693 (size before relaxing)
 .debug_str     0x00005de5      0x377 lib\src\peripherals\stm32f4xx_spi.o
                                0x6dd (size before relaxing)
 .debug_str     0x0000615c      0x138 lib\src\peripherals\stm32f4xx_syscfg.o
                                0x347 (size before relaxing)
 .debug_str     0x00006294      0xb40 lib\src\peripherals\stm32f4xx_tim.o
                                0xe23 (size before relaxing)
 .debug_str     0x00006dd4      0x40e lib\src\peripherals\stm32f4xx_usart.o
                                0x6e2 (size before relaxing)
 .debug_str     0x000071e2       0xc2 lib\src\peripherals\stm32f4xx_wwdg.o
                                0x2ca (size before relaxing)
 .debug_str     0x000072a4      0x719 src\Audio.o
                               0x1131 (size before relaxing)
 .debug_str     0x000079bd      0x11f src\main.o
                               0x116e (size before relaxing)
 .debug_str     0x00007adc       0x12 src\mp3_data.o
                                0x10a (size before relaxing)
 .debug_str     0x00007aee       0xa6 src\stm32f4xx_it.o
                                0x257 (size before relaxing)
 .debug_str     0x00007b94      0x16d src\syscalls.o
                                0x833 (size before relaxing)
 .debug_str     0x00007d01       0x60 src\system_stm32f4xx.o
                                0x3e3 (size before relaxing)
 .debug_str     0x00007d61       0x2c src\utils.o
                                0x655 (size before relaxing)

.comment        0x00000000       0x7c
 .comment       0x00000000       0x7c helix\mp3dec.o
                                 0x7d (size before relaxing)
 .comment       0x0000007c       0x7d helix\mp3tabs.o
 .comment       0x0000007c       0x7d helix\real\bitstream.o
 .comment       0x0000007c       0x7d helix\real\buffers.o
 .comment       0x0000007c       0x7d helix\real\dct32.o
 .comment       0x0000007c       0x7d helix\real\dequant.o
 .comment       0x0000007c       0x7d helix\real\dqchan.o
 .comment       0x0000007c       0x7d helix\real\huffman.o
 .comment       0x0000007c       0x7d helix\real\hufftabs.o
 .comment       0x0000007c       0x7d helix\real\imdct.o
 .comment       0x0000007c       0x7d helix\real\polyphase.o
 .comment       0x0000007c       0x7d helix\real\scalfact.o
 .comment       0x0000007c       0x7d helix\real\stproc.o
 .comment       0x0000007c       0x7d helix\real\subband.o
 .comment       0x0000007c       0x7d helix\real\trigtabs_fixpt.o
 .comment       0x0000007c       0x7d lib\src\peripherals\misc.o
 .comment       0x0000007c       0x7d lib\src\peripherals\stm32f4xx_adc.o
 .comment       0x0000007c       0x7d lib\src\peripherals\stm32f4xx_can.o
 .comment       0x0000007c       0x7d lib\src\peripherals\stm32f4xx_crc.o
 .comment       0x0000007c       0x7d lib\src\peripherals\stm32f4xx_cryp.o
 .comment       0x0000007c       0x7d lib\src\peripherals\stm32f4xx_cryp_aes.o
 .comment       0x0000007c       0x7d lib\src\peripherals\stm32f4xx_cryp_des.o
 .comment       0x0000007c       0x7d lib\src\peripherals\stm32f4xx_cryp_tdes.o
 .comment       0x0000007c       0x7d lib\src\peripherals\stm32f4xx_dac.o
 .comment       0x0000007c       0x7d lib\src\peripherals\stm32f4xx_dbgmcu.o
 .comment       0x0000007c       0x7d lib\src\peripherals\stm32f4xx_dcmi.o
 .comment       0x0000007c       0x7d lib\src\peripherals\stm32f4xx_dma.o
 .comment       0x0000007c       0x7d lib\src\peripherals\stm32f4xx_exti.o
 .comment       0x0000007c       0x7d lib\src\peripherals\stm32f4xx_flash.o
 .comment       0x0000007c       0x7d lib\src\peripherals\stm32f4xx_fsmc.o
 .comment       0x0000007c       0x7d lib\src\peripherals\stm32f4xx_gpio.o
 .comment       0x0000007c       0x7d lib\src\peripherals\stm32f4xx_hash.o
 .comment       0x0000007c       0x7d lib\src\peripherals\stm32f4xx_hash_md5.o
 .comment       0x0000007c       0x7d lib\src\peripherals\stm32f4xx_hash_sha1.o
 .comment       0x0000007c       0x7d lib\src\peripherals\stm32f4xx_i2c.o
 .comment       0x0000007c       0x7d lib\src\peripherals\stm32f4xx_iwdg.o
 .comment       0x0000007c       0x7d lib\src\peripherals\stm32f4xx_pwr.o
 .comment       0x0000007c       0x7d lib\src\peripherals\stm32f4xx_rcc.o
 .comment       0x0000007c       0x7d lib\src\peripherals\stm32f4xx_rng.o
 .comment       0x0000007c       0x7d lib\src\peripherals\stm32f4xx_rtc.o
 .comment       0x0000007c       0x7d lib\src\peripherals\stm32f4xx_sdio.o
 .comment       0x0000007c       0x7d lib\src\peripherals\stm32f4xx_spi.o
 .comment       0x0000007c       0x7d lib\src\peripherals\stm32f4xx_syscfg.o
 .comment       0x0000007c       0x7d lib\src\peripherals\stm32f4xx_tim.o
 .comment       0x0000007c       0x7d lib\src\peripherals\stm32f4xx_usart.o
 .comment       0x0000007c       0x7d lib\src\peripherals\stm32f4xx_wwdg.o
 .comment       0x0000007c       0x7d src\Audio.o
 .comment       0x0000007c       0x7d src\main.o
 .comment       0x0000007c       0x7d src\mp3_data.o
 .comment       0x0000007c       0x7d src\stm32f4xx_it.o
 .comment       0x0000007c       0x7d src\syscalls.o
 .comment       0x0000007c       0x7d src\system_stm32f4xx.o
 .comment       0x0000007c       0x7d src\utils.o

.debug_frame    0x00000000     0x7370
 .debug_frame   0x00000000      0x144 helix\mp3dec.o
 .debug_frame   0x00000144      0x128 helix\real\bitstream.o
 .debug_frame   0x0000026c       0x84 helix\real\buffers.o
 .debug_frame   0x000002f0       0x60 helix\real\dct32.o
 .debug_frame   0x00000350       0x64 helix\real\dequant.o
 .debug_frame   0x000003b4       0xb0 helix\real\dqchan.o
 .debug_frame   0x00000464       0x88 helix\real\huffman.o
 .debug_frame   0x000004ec      0x1fc helix\real\imdct.o
 .debug_frame   0x000006e8       0xe0 helix\real\polyphase.o
 .debug_frame   0x000007c8       0x88 helix\real\scalfact.o
 .debug_frame   0x00000850       0xd4 helix\real\stproc.o
 .debug_frame   0x00000924       0x38 helix\real\subband.o
 .debug_frame   0x0000095c       0xd8 lib\src\peripherals\misc.o
 .debug_frame   0x00000a34      0x5ec lib\src\peripherals\stm32f4xx_adc.o
 .debug_frame   0x00001020      0x3f0 lib\src\peripherals\stm32f4xx_can.o
 .debug_frame   0x00001410       0xe8 lib\src\peripherals\stm32f4xx_crc.o
 .debug_frame   0x000014f8      0x29c lib\src\peripherals\stm32f4xx_cryp.o
 .debug_frame   0x00001794       0x88 lib\src\peripherals\stm32f4xx_cryp_aes.o
 .debug_frame   0x0000181c       0x60 lib\src\peripherals\stm32f4xx_cryp_des.o
 .debug_frame   0x0000187c       0x60 lib\src\peripherals\stm32f4xx_cryp_tdes.o
 .debug_frame   0x000018dc      0x2ac lib\src\peripherals\stm32f4xx_dac.o
 .debug_frame   0x00001b88       0xc8 lib\src\peripherals\stm32f4xx_dbgmcu.o
 .debug_frame   0x00001c50      0x258 lib\src\peripherals\stm32f4xx_dcmi.o
 .debug_frame   0x00001ea8      0x308 lib\src\peripherals\stm32f4xx_dma.o
 .debug_frame   0x000021b0      0x148 lib\src\peripherals\stm32f4xx_exti.o
 .debug_frame   0x000022f8      0x450 lib\src\peripherals\stm32f4xx_flash.o
 .debug_frame   0x00002748      0x300 lib\src\peripherals\stm32f4xx_fsmc.o
 .debug_frame   0x00002a48      0x23c lib\src\peripherals\stm32f4xx_gpio.o
 .debug_frame   0x00002c84      0x294 lib\src\peripherals\stm32f4xx_hash.o
 .debug_frame   0x00002f18       0x5c lib\src\peripherals\stm32f4xx_hash_md5.o
 .debug_frame   0x00002f74       0x60 lib\src\peripherals\stm32f4xx_hash_sha1.o
 .debug_frame   0x00002fd4      0x530 lib\src\peripherals\stm32f4xx_i2c.o
 .debug_frame   0x00003504       0xf0 lib\src\peripherals\stm32f4xx_iwdg.o
 .debug_frame   0x000035f4      0x1dc lib\src\peripherals\stm32f4xx_pwr.o
 .debug_frame   0x000037d0      0x6d4 lib\src\peripherals\stm32f4xx_rcc.o
 .debug_frame   0x00003ea4      0x13c lib\src\peripherals\stm32f4xx_rng.o
 .debug_frame   0x00003fe0      0x8b0 lib\src\peripherals\stm32f4xx_rtc.o
 .debug_frame   0x00004890      0x48c lib\src\peripherals\stm32f4xx_sdio.o
 .debug_frame   0x00004d1c      0x3f4 lib\src\peripherals\stm32f4xx_spi.o
 .debug_frame   0x00005110       0xf4 lib\src\peripherals\stm32f4xx_syscfg.o
 .debug_frame   0x00005204      0xe54 lib\src\peripherals\stm32f4xx_tim.o
 .debug_frame   0x00006058      0x490 lib\src\peripherals\stm32f4xx_usart.o
 .debug_frame   0x000064e8      0x134 lib\src\peripherals\stm32f4xx_wwdg.o
 .debug_frame   0x0000661c      0x264 src\Audio.o
 .debug_frame   0x00006880      0x110 src\main.o
 .debug_frame   0x00006990      0x10c src\stm32f4xx_it.o
 .debug_frame   0x00006a9c      0x14c src\syscalls.o
 .debug_frame   0x00006be8       0x7c src\system_stm32f4xx.o
 .debug_frame   0x00006c64       0x48 src\utils.o
 .debug_frame   0x00006cac       0x20 c:/program files/atollic/truestudio for stm32 9.0.1/armtools/bin/../lib/gcc/arm-atollic-eabi/6.3.1/../../../../arm-atollic-eabi/lib/armv7e-m/fpu\libm.a(lib_a-sf_floor.o)
 .debug_frame   0x00006ccc       0x50 c:/program files/atollic/truestudio for stm32 9.0.1/armtools/bin/../lib/gcc/arm-atollic-eabi/6.3.1/../../../../arm-atollic-eabi/lib/armv7e-m/fpu\libm.a(lib_a-wf_pow.o)
 .debug_frame   0x00006d1c       0x68 c:/program files/atollic/truestudio for stm32 9.0.1/armtools/bin/../lib/gcc/arm-atollic-eabi/6.3.1/../../../../arm-atollic-eabi/lib/armv7e-m/fpu\libm.a(lib_a-ef_pow.o)
 .debug_frame   0x00006d84       0x2c c:/program files/atollic/truestudio for stm32 9.0.1/armtools/bin/../lib/gcc/arm-atollic-eabi/6.3.1/../../../../arm-atollic-eabi/lib/armv7e-m/fpu\libm.a(lib_a-ef_sqrt.o)
 .debug_frame   0x00006db0       0x20 c:/program files/atollic/truestudio for stm32 9.0.1/armtools/bin/../lib/gcc/arm-atollic-eabi/6.3.1/../../../../arm-atollic-eabi/lib/armv7e-m/fpu\libm.a(lib_a-s_matherr.o)
 .debug_frame   0x00006dd0       0x34 c:/program files/atollic/truestudio for stm32 9.0.1/armtools/bin/../lib/gcc/arm-atollic-eabi/6.3.1/../../../../arm-atollic-eabi/lib/armv7e-m/fpu\libm.a(lib_a-s_rint.o)
 .debug_frame   0x00006e04       0x20 c:/program files/atollic/truestudio for stm32 9.0.1/armtools/bin/../lib/gcc/arm-atollic-eabi/6.3.1/../../../../arm-atollic-eabi/lib/armv7e-m/fpu\libm.a(lib_a-sf_fabs.o)
 .debug_frame   0x00006e24       0x20 c:/program files/atollic/truestudio for stm32 9.0.1/armtools/bin/../lib/gcc/arm-atollic-eabi/6.3.1/../../../../arm-atollic-eabi/lib/armv7e-m/fpu\libm.a(lib_a-sf_finite.o)
 .debug_frame   0x00006e44       0x20 c:/program files/atollic/truestudio for stm32 9.0.1/armtools/bin/../lib/gcc/arm-atollic-eabi/6.3.1/../../../../arm-atollic-eabi/lib/armv7e-m/fpu\libm.a(lib_a-sf_nan.o)
 .debug_frame   0x00006e64       0x3c c:/program files/atollic/truestudio for stm32 9.0.1/armtools/bin/../lib/gcc/arm-atollic-eabi/6.3.1/../../../../arm-atollic-eabi/lib/armv7e-m/fpu\libm.a(lib_a-sf_scalbn.o)
 .debug_frame   0x00006ea0       0x20 c:/program files/atollic/truestudio for stm32 9.0.1/armtools/bin/../lib/gcc/arm-atollic-eabi/6.3.1/../../../../arm-atollic-eabi/lib/armv7e-m/fpu\libm.a(lib_a-sf_copysign.o)
 .debug_frame   0x00006ec0       0x2c c:/program files/atollic/truestudio for stm32 9.0.1/armtools/bin/../lib/gcc/arm-atollic-eabi/6.3.1/../../../../arm-atollic-eabi/lib/armv7e-m/fpu\libc_nano.a(lib_a-init.o)
 .debug_frame   0x00006eec       0x28 c:/program files/atollic/truestudio for stm32 9.0.1/armtools/bin/../lib/gcc/arm-atollic-eabi/6.3.1/../../../../arm-atollic-eabi/lib/armv7e-m/fpu\libc_nano.a(lib_a-memcpy-stub.o)
 .debug_frame   0x00006f14       0x28 c:/program files/atollic/truestudio for stm32 9.0.1/armtools/bin/../lib/gcc/arm-atollic-eabi/6.3.1/../../../../arm-atollic-eabi/lib/armv7e-m/fpu\libc_nano.a(lib_a-memmove.o)
 .debug_frame   0x00006f3c       0x70 c:/program files/atollic/truestudio for stm32 9.0.1/armtools/bin/../lib/gcc/arm-atollic-eabi/6.3.1/../../../../arm-atollic-eabi/lib/armv7e-m/fpu\libc_nano.a(lib_a-sprintf.o)
 .debug_frame   0x00006fac       0x90 c:/program files/atollic/truestudio for stm32 9.0.1/armtools/bin/../lib/gcc/arm-atollic-eabi/6.3.1/../../../../arm-atollic-eabi/lib/armv7e-m/fpu\libc_nano.a(lib_a-nano-svfprintf.o)
 .debug_frame   0x0000703c       0x60 c:/program files/atollic/truestudio for stm32 9.0.1/armtools/bin/../lib/gcc/arm-atollic-eabi/6.3.1/../../../../arm-atollic-eabi/lib/armv7e-m/fpu\libc_nano.a(lib_a-nano-vfprintf_i.o)
 .debug_frame   0x0000709c       0x38 c:/program files/atollic/truestudio for stm32 9.0.1/armtools/bin/../lib/gcc/arm-atollic-eabi/6.3.1/../../../../arm-atollic-eabi/lib/armv7e-m/fpu\libc_nano.a(lib_a-nano-freer.o)
 .debug_frame   0x000070d4       0x2c c:/program files/atollic/truestudio for stm32 9.0.1/armtools/bin/../lib/gcc/arm-atollic-eabi/6.3.1/../../../../arm-atollic-eabi/lib/armv7e-m/fpu\libc_nano.a(lib_a-nano-mallocr.o)
 .debug_frame   0x00007100       0x3c c:/program files/atollic/truestudio for stm32 9.0.1/armtools/bin/../lib/gcc/arm-atollic-eabi/6.3.1/../../../../arm-atollic-eabi/lib/armv7e-m/fpu\libc_nano.a(lib_a-nano-reallocr.o)
 .debug_frame   0x0000713c       0x30 c:/program files/atollic/truestudio for stm32 9.0.1/armtools/bin/../lib/gcc/arm-atollic-eabi/6.3.1/../../../../arm-atollic-eabi/lib/armv7e-m/fpu\libc_nano.a(lib_a-mlock.o)
 .debug_frame   0x0000716c       0x20 c:/program files/atollic/truestudio for stm32 9.0.1/armtools/bin/../lib/gcc/arm-atollic-eabi/6.3.1/../../../../arm-atollic-eabi/lib/armv7e-m/fpu\libc_nano.a(lib_a-nano-msizer.o)
 .debug_frame   0x0000718c       0xac c:/program files/atollic/truestudio for stm32 9.0.1/armtools/bin/../lib/gcc/arm-atollic-eabi/6.3.1/armv7e-m/fpu\libgcc.a(_arm_addsubdf3.o)
 .debug_frame   0x00007238       0x50 c:/program files/atollic/truestudio for stm32 9.0.1/armtools/bin/../lib/gcc/arm-atollic-eabi/6.3.1/armv7e-m/fpu\libgcc.a(_arm_muldivdf3.o)
 .debug_frame   0x00007288       0xc4 c:/program files/atollic/truestudio for stm32 9.0.1/armtools/bin/../lib/gcc/arm-atollic-eabi/6.3.1/armv7e-m/fpu\libgcc.a(_arm_cmpdf2.o)
 .debug_frame   0x0000734c       0x24 c:/program files/atollic/truestudio for stm32 9.0.1/armtools/bin/../lib/gcc/arm-atollic-eabi/6.3.1/armv7e-m/fpu\libgcc.a(_arm_truncdfsf2.o)

.debug_ranges   0x00000000       0x20
 .debug_ranges  0x00000000       0x20 lib\startup_stm32f4xx.o

Cross Reference Table

Symbol                                            File
ADC_AnalogWatchdogCmd                             lib\src\peripherals\stm32f4xx_adc.o
ADC_AnalogWatchdogSingleChannelConfig             lib\src\peripherals\stm32f4xx_adc.o
ADC_AnalogWatchdogThresholdsConfig                lib\src\peripherals\stm32f4xx_adc.o
ADC_AutoInjectedConvCmd                           lib\src\peripherals\stm32f4xx_adc.o
ADC_ClearFlag                                     lib\src\peripherals\stm32f4xx_adc.o
ADC_ClearITPendingBit                             lib\src\peripherals\stm32f4xx_adc.o
ADC_Cmd                                           lib\src\peripherals\stm32f4xx_adc.o
ADC_CommonInit                                    lib\src\peripherals\stm32f4xx_adc.o
ADC_CommonStructInit                              lib\src\peripherals\stm32f4xx_adc.o
ADC_ContinuousModeCmd                             lib\src\peripherals\stm32f4xx_adc.o
ADC_DMACmd                                        lib\src\peripherals\stm32f4xx_adc.o
ADC_DMARequestAfterLastTransferCmd                lib\src\peripherals\stm32f4xx_adc.o
ADC_DeInit                                        lib\src\peripherals\stm32f4xx_adc.o
ADC_DiscModeChannelCountConfig                    lib\src\peripherals\stm32f4xx_adc.o
ADC_DiscModeCmd                                   lib\src\peripherals\stm32f4xx_adc.o
ADC_EOCOnEachRegularChannelCmd                    lib\src\peripherals\stm32f4xx_adc.o
ADC_ExternalTrigInjectedConvConfig                lib\src\peripherals\stm32f4xx_adc.o
ADC_ExternalTrigInjectedConvEdgeConfig            lib\src\peripherals\stm32f4xx_adc.o
ADC_GetConversionValue                            lib\src\peripherals\stm32f4xx_adc.o
ADC_GetFlagStatus                                 lib\src\peripherals\stm32f4xx_adc.o
ADC_GetITStatus                                   lib\src\peripherals\stm32f4xx_adc.o
ADC_GetInjectedConversionValue                    lib\src\peripherals\stm32f4xx_adc.o
ADC_GetMultiModeConversionValue                   lib\src\peripherals\stm32f4xx_adc.o
ADC_GetSoftwareStartConvStatus                    lib\src\peripherals\stm32f4xx_adc.o
ADC_GetSoftwareStartInjectedConvCmdStatus         lib\src\peripherals\stm32f4xx_adc.o
ADC_IRQHandler                                    lib\startup_stm32f4xx.o
ADC_ITConfig                                      lib\src\peripherals\stm32f4xx_adc.o
ADC_Init                                          lib\src\peripherals\stm32f4xx_adc.o
ADC_InjectedChannelConfig                         lib\src\peripherals\stm32f4xx_adc.o
ADC_InjectedDiscModeCmd                           lib\src\peripherals\stm32f4xx_adc.o
ADC_InjectedSequencerLengthConfig                 lib\src\peripherals\stm32f4xx_adc.o
ADC_MultiModeDMARequestAfterLastTransferCmd       lib\src\peripherals\stm32f4xx_adc.o
ADC_RegularChannelConfig                          lib\src\peripherals\stm32f4xx_adc.o
ADC_SetInjectedOffset                             lib\src\peripherals\stm32f4xx_adc.o
ADC_SoftwareStartConv                             lib\src\peripherals\stm32f4xx_adc.o
ADC_SoftwareStartInjectedConv                     lib\src\peripherals\stm32f4xx_adc.o
ADC_StructInit                                    lib\src\peripherals\stm32f4xx_adc.o
ADC_TempSensorVrefintCmd                          lib\src\peripherals\stm32f4xx_adc.o
ADC_VBATCmd                                       lib\src\peripherals\stm32f4xx_adc.o
AHBPrescTable                                     src\system_stm32f4xx.o
AudioOff                                          src\Audio.o
AudioOn                                           src\Audio.o
BusFault_Handler                                  src\stm32f4xx_it.o
                                                  lib\startup_stm32f4xx.o
CAN1_RX0_IRQHandler                               lib\startup_stm32f4xx.o
CAN1_RX1_IRQHandler                               lib\startup_stm32f4xx.o
CAN1_SCE_IRQHandler                               lib\startup_stm32f4xx.o
CAN1_TX_IRQHandler                                lib\startup_stm32f4xx.o
CAN2_RX0_IRQHandler                               lib\startup_stm32f4xx.o
CAN2_RX1_IRQHandler                               lib\startup_stm32f4xx.o
CAN2_SCE_IRQHandler                               lib\startup_stm32f4xx.o
CAN2_TX_IRQHandler                                lib\startup_stm32f4xx.o
CAN_CancelTransmit                                lib\src\peripherals\stm32f4xx_can.o
CAN_ClearFlag                                     lib\src\peripherals\stm32f4xx_can.o
CAN_ClearITPendingBit                             lib\src\peripherals\stm32f4xx_can.o
CAN_DBGFreeze                                     lib\src\peripherals\stm32f4xx_can.o
CAN_DeInit                                        lib\src\peripherals\stm32f4xx_can.o
CAN_FIFORelease                                   lib\src\peripherals\stm32f4xx_can.o
CAN_FilterInit                                    lib\src\peripherals\stm32f4xx_can.o
CAN_GetFlagStatus                                 lib\src\peripherals\stm32f4xx_can.o
CAN_GetITStatus                                   lib\src\peripherals\stm32f4xx_can.o
CAN_GetLSBTransmitErrorCounter                    lib\src\peripherals\stm32f4xx_can.o
CAN_GetLastErrorCode                              lib\src\peripherals\stm32f4xx_can.o
CAN_GetReceiveErrorCounter                        lib\src\peripherals\stm32f4xx_can.o
CAN_ITConfig                                      lib\src\peripherals\stm32f4xx_can.o
CAN_Init                                          lib\src\peripherals\stm32f4xx_can.o
CAN_MessagePending                                lib\src\peripherals\stm32f4xx_can.o
CAN_OperatingModeRequest                          lib\src\peripherals\stm32f4xx_can.o
CAN_Receive                                       lib\src\peripherals\stm32f4xx_can.o
CAN_SlaveStartBank                                lib\src\peripherals\stm32f4xx_can.o
CAN_Sleep                                         lib\src\peripherals\stm32f4xx_can.o
CAN_StructInit                                    lib\src\peripherals\stm32f4xx_can.o
CAN_TTComModeCmd                                  lib\src\peripherals\stm32f4xx_can.o
CAN_Transmit                                      lib\src\peripherals\stm32f4xx_can.o
CAN_TransmitStatus                                lib\src\peripherals\stm32f4xx_can.o
CAN_WakeUp                                        lib\src\peripherals\stm32f4xx_can.o
CRC_CalcBlockCRC                                  lib\src\peripherals\stm32f4xx_crc.o
CRC_CalcCRC                                       lib\src\peripherals\stm32f4xx_crc.o
CRC_GetCRC                                        lib\src\peripherals\stm32f4xx_crc.o
CRC_GetIDRegister                                 lib\src\peripherals\stm32f4xx_crc.o
CRC_ResetDR                                       lib\src\peripherals\stm32f4xx_crc.o
CRC_SetIDRegister                                 lib\src\peripherals\stm32f4xx_crc.o
CRYP_AES_CBC                                      lib\src\peripherals\stm32f4xx_cryp_aes.o
CRYP_AES_CTR                                      lib\src\peripherals\stm32f4xx_cryp_aes.o
CRYP_AES_ECB                                      lib\src\peripherals\stm32f4xx_cryp_aes.o
CRYP_Cmd                                          lib\src\peripherals\stm32f4xx_cryp.o
                                                  lib\src\peripherals\stm32f4xx_cryp_tdes.o
                                                  lib\src\peripherals\stm32f4xx_cryp_des.o
                                                  lib\src\peripherals\stm32f4xx_cryp_aes.o
CRYP_DES_CBC                                      lib\src\peripherals\stm32f4xx_cryp_des.o
CRYP_DES_ECB                                      lib\src\peripherals\stm32f4xx_cryp_des.o
CRYP_DMACmd                                       lib\src\peripherals\stm32f4xx_cryp.o
CRYP_DataIn                                       lib\src\peripherals\stm32f4xx_cryp.o
                                                  lib\src\peripherals\stm32f4xx_cryp_tdes.o
                                                  lib\src\peripherals\stm32f4xx_cryp_des.o
                                                  lib\src\peripherals\stm32f4xx_cryp_aes.o
CRYP_DataOut                                      lib\src\peripherals\stm32f4xx_cryp.o
                                                  lib\src\peripherals\stm32f4xx_cryp_tdes.o
                                                  lib\src\peripherals\stm32f4xx_cryp_des.o
                                                  lib\src\peripherals\stm32f4xx_cryp_aes.o
CRYP_DeInit                                       lib\src\peripherals\stm32f4xx_cryp.o
CRYP_FIFOFlush                                    lib\src\peripherals\stm32f4xx_cryp.o
                                                  lib\src\peripherals\stm32f4xx_cryp_tdes.o
                                                  lib\src\peripherals\stm32f4xx_cryp_des.o
                                                  lib\src\peripherals\stm32f4xx_cryp_aes.o
CRYP_GetFlagStatus                                lib\src\peripherals\stm32f4xx_cryp.o
                                                  lib\src\peripherals\stm32f4xx_cryp_tdes.o
                                                  lib\src\peripherals\stm32f4xx_cryp_des.o
                                                  lib\src\peripherals\stm32f4xx_cryp_aes.o
CRYP_GetITStatus                                  lib\src\peripherals\stm32f4xx_cryp.o
CRYP_IRQHandler                                   lib\startup_stm32f4xx.o
CRYP_ITConfig                                     lib\src\peripherals\stm32f4xx_cryp.o
CRYP_IVInit                                       lib\src\peripherals\stm32f4xx_cryp.o
                                                  lib\src\peripherals\stm32f4xx_cryp_tdes.o
                                                  lib\src\peripherals\stm32f4xx_cryp_des.o
                                                  lib\src\peripherals\stm32f4xx_cryp_aes.o
CRYP_IVStructInit                                 lib\src\peripherals\stm32f4xx_cryp.o
CRYP_Init                                         lib\src\peripherals\stm32f4xx_cryp.o
                                                  lib\src\peripherals\stm32f4xx_cryp_tdes.o
                                                  lib\src\peripherals\stm32f4xx_cryp_des.o
                                                  lib\src\peripherals\stm32f4xx_cryp_aes.o
CRYP_KeyInit                                      lib\src\peripherals\stm32f4xx_cryp.o
                                                  lib\src\peripherals\stm32f4xx_cryp_tdes.o
                                                  lib\src\peripherals\stm32f4xx_cryp_des.o
                                                  lib\src\peripherals\stm32f4xx_cryp_aes.o
CRYP_KeyStructInit                                lib\src\peripherals\stm32f4xx_cryp.o
                                                  lib\src\peripherals\stm32f4xx_cryp_tdes.o
                                                  lib\src\peripherals\stm32f4xx_cryp_des.o
                                                  lib\src\peripherals\stm32f4xx_cryp_aes.o
CRYP_RestoreContext                               lib\src\peripherals\stm32f4xx_cryp.o
CRYP_SaveContext                                  lib\src\peripherals\stm32f4xx_cryp.o
CRYP_StructInit                                   lib\src\peripherals\stm32f4xx_cryp.o
CRYP_TDES_CBC                                     lib\src\peripherals\stm32f4xx_cryp_tdes.o
CRYP_TDES_ECB                                     lib\src\peripherals\stm32f4xx_cryp_tdes.o
DAC_ClearFlag                                     lib\src\peripherals\stm32f4xx_dac.o
DAC_ClearITPendingBit                             lib\src\peripherals\stm32f4xx_dac.o
DAC_Cmd                                           lib\src\peripherals\stm32f4xx_dac.o
DAC_DMACmd                                        lib\src\peripherals\stm32f4xx_dac.o
DAC_DeInit                                        lib\src\peripherals\stm32f4xx_dac.o
DAC_DualSoftwareTriggerCmd                        lib\src\peripherals\stm32f4xx_dac.o
DAC_GetDataOutputValue                            lib\src\peripherals\stm32f4xx_dac.o
DAC_GetFlagStatus                                 lib\src\peripherals\stm32f4xx_dac.o
DAC_GetITStatus                                   lib\src\peripherals\stm32f4xx_dac.o
DAC_ITConfig                                      lib\src\peripherals\stm32f4xx_dac.o
DAC_Init                                          lib\src\peripherals\stm32f4xx_dac.o
DAC_SetChannel1Data                               lib\src\peripherals\stm32f4xx_dac.o
DAC_SetChannel2Data                               lib\src\peripherals\stm32f4xx_dac.o
DAC_SetDualChannelData                            lib\src\peripherals\stm32f4xx_dac.o
DAC_SoftwareTriggerCmd                            lib\src\peripherals\stm32f4xx_dac.o
DAC_StructInit                                    lib\src\peripherals\stm32f4xx_dac.o
DAC_WaveGenerationCmd                             lib\src\peripherals\stm32f4xx_dac.o
DBGMCU_APB1PeriphConfig                           lib\src\peripherals\stm32f4xx_dbgmcu.o
DBGMCU_APB2PeriphConfig                           lib\src\peripherals\stm32f4xx_dbgmcu.o
DBGMCU_Config                                     lib\src\peripherals\stm32f4xx_dbgmcu.o
DBGMCU_GetDEVID                                   lib\src\peripherals\stm32f4xx_dbgmcu.o
DBGMCU_GetREVID                                   lib\src\peripherals\stm32f4xx_dbgmcu.o
DCMI_CROPCmd                                      lib\src\peripherals\stm32f4xx_dcmi.o
DCMI_CROPConfig                                   lib\src\peripherals\stm32f4xx_dcmi.o
DCMI_CaptureCmd                                   lib\src\peripherals\stm32f4xx_dcmi.o
DCMI_ClearFlag                                    lib\src\peripherals\stm32f4xx_dcmi.o
DCMI_ClearITPendingBit                            lib\src\peripherals\stm32f4xx_dcmi.o
DCMI_Cmd                                          lib\src\peripherals\stm32f4xx_dcmi.o
DCMI_DeInit                                       lib\src\peripherals\stm32f4xx_dcmi.o
DCMI_GetFlagStatus                                lib\src\peripherals\stm32f4xx_dcmi.o
DCMI_GetITStatus                                  lib\src\peripherals\stm32f4xx_dcmi.o
DCMI_IRQHandler                                   lib\startup_stm32f4xx.o
DCMI_ITConfig                                     lib\src\peripherals\stm32f4xx_dcmi.o
DCMI_Init                                         lib\src\peripherals\stm32f4xx_dcmi.o
DCMI_JPEGCmd                                      lib\src\peripherals\stm32f4xx_dcmi.o
DCMI_ReadData                                     lib\src\peripherals\stm32f4xx_dcmi.o
DCMI_SetEmbeddedSynchroCodes                      lib\src\peripherals\stm32f4xx_dcmi.o
DCMI_StructInit                                   lib\src\peripherals\stm32f4xx_dcmi.o
DMA1_Stream0_IRQHandler                           lib\startup_stm32f4xx.o
DMA1_Stream1_IRQHandler                           lib\startup_stm32f4xx.o
DMA1_Stream2_IRQHandler                           lib\startup_stm32f4xx.o
DMA1_Stream3_IRQHandler                           lib\startup_stm32f4xx.o
DMA1_Stream4_IRQHandler                           lib\startup_stm32f4xx.o
DMA1_Stream5_IRQHandler                           lib\startup_stm32f4xx.o
DMA1_Stream6_IRQHandler                           lib\startup_stm32f4xx.o
DMA1_Stream7_IRQHandler                           src\Audio.o
                                                  lib\startup_stm32f4xx.o
DMA2_Stream0_IRQHandler                           lib\startup_stm32f4xx.o
DMA2_Stream1_IRQHandler                           lib\startup_stm32f4xx.o
DMA2_Stream2_IRQHandler                           lib\startup_stm32f4xx.o
DMA2_Stream3_IRQHandler                           lib\startup_stm32f4xx.o
DMA2_Stream4_IRQHandler                           lib\startup_stm32f4xx.o
DMA2_Stream5_IRQHandler                           lib\startup_stm32f4xx.o
DMA2_Stream6_IRQHandler                           lib\startup_stm32f4xx.o
DMA2_Stream7_IRQHandler                           lib\startup_stm32f4xx.o
DMA_ClearFlag                                     lib\src\peripherals\stm32f4xx_dma.o
DMA_ClearITPendingBit                             lib\src\peripherals\stm32f4xx_dma.o
DMA_Cmd                                           lib\src\peripherals\stm32f4xx_dma.o
DMA_DeInit                                        lib\src\peripherals\stm32f4xx_dma.o
DMA_DoubleBufferModeCmd                           lib\src\peripherals\stm32f4xx_dma.o
DMA_DoubleBufferModeConfig                        lib\src\peripherals\stm32f4xx_dma.o
DMA_FlowControllerConfig                          lib\src\peripherals\stm32f4xx_dma.o
DMA_GetCmdStatus                                  lib\src\peripherals\stm32f4xx_dma.o
DMA_GetCurrDataCounter                            lib\src\peripherals\stm32f4xx_dma.o
DMA_GetCurrentMemoryTarget                        lib\src\peripherals\stm32f4xx_dma.o
DMA_GetFIFOStatus                                 lib\src\peripherals\stm32f4xx_dma.o
DMA_GetFlagStatus                                 lib\src\peripherals\stm32f4xx_dma.o
DMA_GetITStatus                                   lib\src\peripherals\stm32f4xx_dma.o
DMA_ITConfig                                      lib\src\peripherals\stm32f4xx_dma.o
DMA_Init                                          lib\src\peripherals\stm32f4xx_dma.o
DMA_MemoryTargetConfig                            lib\src\peripherals\stm32f4xx_dma.o
DMA_PeriphIncOffsetSizeConfig                     lib\src\peripherals\stm32f4xx_dma.o
DMA_SetCurrDataCounter                            lib\src\peripherals\stm32f4xx_dma.o
DMA_StructInit                                    lib\src\peripherals\stm32f4xx_dma.o
DebugMon_Handler                                  src\stm32f4xx_it.o
                                                  lib\startup_stm32f4xx.o
Default_Handler                                   lib\startup_stm32f4xx.o
Delay                                             src\main.o
ETH_IRQHandler                                    lib\startup_stm32f4xx.o
ETH_WKUP_IRQHandler                               lib\startup_stm32f4xx.o
EXTI0_IRQHandler                                  lib\startup_stm32f4xx.o
EXTI15_10_IRQHandler                              lib\startup_stm32f4xx.o
EXTI1_IRQHandler                                  lib\startup_stm32f4xx.o
EXTI2_IRQHandler                                  lib\startup_stm32f4xx.o
EXTI3_IRQHandler                                  lib\startup_stm32f4xx.o
EXTI4_IRQHandler                                  lib\startup_stm32f4xx.o
EXTI9_5_IRQHandler                                lib\startup_stm32f4xx.o
EXTI_ClearFlag                                    lib\src\peripherals\stm32f4xx_exti.o
EXTI_ClearITPendingBit                            lib\src\peripherals\stm32f4xx_exti.o
EXTI_DeInit                                       lib\src\peripherals\stm32f4xx_exti.o
EXTI_GenerateSWInterrupt                          lib\src\peripherals\stm32f4xx_exti.o
EXTI_GetFlagStatus                                lib\src\peripherals\stm32f4xx_exti.o
EXTI_GetITStatus                                  lib\src\peripherals\stm32f4xx_exti.o
EXTI_Init                                         lib\src\peripherals\stm32f4xx_exti.o
EXTI_StructInit                                   lib\src\peripherals\stm32f4xx_exti.o
FLASH_ClearFlag                                   lib\src\peripherals\stm32f4xx_flash.o
FLASH_DataCacheCmd                                lib\src\peripherals\stm32f4xx_flash.o
FLASH_DataCacheReset                              lib\src\peripherals\stm32f4xx_flash.o
FLASH_EraseAllSectors                             lib\src\peripherals\stm32f4xx_flash.o
FLASH_EraseSector                                 lib\src\peripherals\stm32f4xx_flash.o
FLASH_GetFlagStatus                               lib\src\peripherals\stm32f4xx_flash.o
FLASH_GetStatus                                   lib\src\peripherals\stm32f4xx_flash.o
FLASH_IRQHandler                                  lib\startup_stm32f4xx.o
FLASH_ITConfig                                    lib\src\peripherals\stm32f4xx_flash.o
FLASH_InstructionCacheCmd                         lib\src\peripherals\stm32f4xx_flash.o
FLASH_InstructionCacheReset                       lib\src\peripherals\stm32f4xx_flash.o
FLASH_Lock                                        lib\src\peripherals\stm32f4xx_flash.o
FLASH_OB_BORConfig                                lib\src\peripherals\stm32f4xx_flash.o
FLASH_OB_GetBOR                                   lib\src\peripherals\stm32f4xx_flash.o
FLASH_OB_GetRDP                                   lib\src\peripherals\stm32f4xx_flash.o
FLASH_OB_GetUser                                  lib\src\peripherals\stm32f4xx_flash.o
FLASH_OB_GetWRP                                   lib\src\peripherals\stm32f4xx_flash.o
FLASH_OB_Launch                                   lib\src\peripherals\stm32f4xx_flash.o
FLASH_OB_Lock                                     lib\src\peripherals\stm32f4xx_flash.o
FLASH_OB_RDPConfig                                lib\src\peripherals\stm32f4xx_flash.o
FLASH_OB_Unlock                                   lib\src\peripherals\stm32f4xx_flash.o
FLASH_OB_UserConfig                               lib\src\peripherals\stm32f4xx_flash.o
FLASH_OB_WRPConfig                                lib\src\peripherals\stm32f4xx_flash.o
FLASH_PrefetchBufferCmd                           lib\src\peripherals\stm32f4xx_flash.o
FLASH_ProgramByte                                 lib\src\peripherals\stm32f4xx_flash.o
FLASH_ProgramDoubleWord                           lib\src\peripherals\stm32f4xx_flash.o
FLASH_ProgramHalfWord                             lib\src\peripherals\stm32f4xx_flash.o
FLASH_ProgramWord                                 lib\src\peripherals\stm32f4xx_flash.o
FLASH_SetLatency                                  lib\src\peripherals\stm32f4xx_flash.o
FLASH_Unlock                                      lib\src\peripherals\stm32f4xx_flash.o
FLASH_WaitForLastOperation                        lib\src\peripherals\stm32f4xx_flash.o
FPU_IRQHandler                                    lib\startup_stm32f4xx.o
FSMC_ClearFlag                                    lib\src\peripherals\stm32f4xx_fsmc.o
FSMC_ClearITPendingBit                            lib\src\peripherals\stm32f4xx_fsmc.o
FSMC_GetECC                                       lib\src\peripherals\stm32f4xx_fsmc.o
FSMC_GetFlagStatus                                lib\src\peripherals\stm32f4xx_fsmc.o
FSMC_GetITStatus                                  lib\src\peripherals\stm32f4xx_fsmc.o
FSMC_IRQHandler                                   lib\startup_stm32f4xx.o
FSMC_ITConfig                                     lib\src\peripherals\stm32f4xx_fsmc.o
FSMC_NANDCmd                                      lib\src\peripherals\stm32f4xx_fsmc.o
FSMC_NANDDeInit                                   lib\src\peripherals\stm32f4xx_fsmc.o
FSMC_NANDECCCmd                                   lib\src\peripherals\stm32f4xx_fsmc.o
FSMC_NANDInit                                     lib\src\peripherals\stm32f4xx_fsmc.o
FSMC_NANDStructInit                               lib\src\peripherals\stm32f4xx_fsmc.o
FSMC_NORSRAMCmd                                   lib\src\peripherals\stm32f4xx_fsmc.o
FSMC_NORSRAMDeInit                                lib\src\peripherals\stm32f4xx_fsmc.o
FSMC_NORSRAMInit                                  lib\src\peripherals\stm32f4xx_fsmc.o
FSMC_NORSRAMStructInit                            lib\src\peripherals\stm32f4xx_fsmc.o
FSMC_PCCARDCmd                                    lib\src\peripherals\stm32f4xx_fsmc.o
FSMC_PCCARDDeInit                                 lib\src\peripherals\stm32f4xx_fsmc.o
FSMC_PCCARDInit                                   lib\src\peripherals\stm32f4xx_fsmc.o
FSMC_PCCARDStructInit                             lib\src\peripherals\stm32f4xx_fsmc.o
GPIO_DeInit                                       lib\src\peripherals\stm32f4xx_gpio.o
GPIO_Init                                         lib\src\peripherals\stm32f4xx_gpio.o
                                                  src\main.o
                                                  src\Audio.o
GPIO_PinAFConfig                                  lib\src\peripherals\stm32f4xx_gpio.o
                                                  src\main.o
                                                  src\Audio.o
GPIO_PinLockConfig                                lib\src\peripherals\stm32f4xx_gpio.o
GPIO_ReadInputData                                lib\src\peripherals\stm32f4xx_gpio.o
GPIO_ReadInputDataBit                             lib\src\peripherals\stm32f4xx_gpio.o
GPIO_ReadOutputData                               lib\src\peripherals\stm32f4xx_gpio.o
GPIO_ReadOutputDataBit                            lib\src\peripherals\stm32f4xx_gpio.o
GPIO_ResetBits                                    lib\src\peripherals\stm32f4xx_gpio.o
                                                  src\main.o
GPIO_SetBits                                      lib\src\peripherals\stm32f4xx_gpio.o
                                                  src\main.o
GPIO_StructInit                                   lib\src\peripherals\stm32f4xx_gpio.o
GPIO_ToggleBits                                   lib\src\peripherals\stm32f4xx_gpio.o
GPIO_Write                                        lib\src\peripherals\stm32f4xx_gpio.o
GPIO_WriteBit                                     lib\src\peripherals\stm32f4xx_gpio.o
HASH_ClearFlag                                    lib\src\peripherals\stm32f4xx_hash.o
HASH_ClearITPendingBit                            lib\src\peripherals\stm32f4xx_hash.o
HASH_DMACmd                                       lib\src\peripherals\stm32f4xx_hash.o
HASH_DataIn                                       lib\src\peripherals\stm32f4xx_hash.o
                                                  lib\src\peripherals\stm32f4xx_hash_sha1.o
                                                  lib\src\peripherals\stm32f4xx_hash_md5.o
HASH_DeInit                                       lib\src\peripherals\stm32f4xx_hash.o
                                                  lib\src\peripherals\stm32f4xx_hash_sha1.o
                                                  lib\src\peripherals\stm32f4xx_hash_md5.o
HASH_GetDigest                                    lib\src\peripherals\stm32f4xx_hash.o
                                                  lib\src\peripherals\stm32f4xx_hash_sha1.o
                                                  lib\src\peripherals\stm32f4xx_hash_md5.o
HASH_GetFlagStatus                                lib\src\peripherals\stm32f4xx_hash.o
                                                  lib\src\peripherals\stm32f4xx_hash_sha1.o
                                                  lib\src\peripherals\stm32f4xx_hash_md5.o
HASH_GetITStatus                                  lib\src\peripherals\stm32f4xx_hash.o
HASH_GetInFIFOWordsNbr                            lib\src\peripherals\stm32f4xx_hash.o
HASH_ITConfig                                     lib\src\peripherals\stm32f4xx_hash.o
HASH_Init                                         lib\src\peripherals\stm32f4xx_hash.o
                                                  lib\src\peripherals\stm32f4xx_hash_sha1.o
                                                  lib\src\peripherals\stm32f4xx_hash_md5.o
HASH_MD5                                          lib\src\peripherals\stm32f4xx_hash_md5.o
HASH_RNG_IRQHandler                               lib\startup_stm32f4xx.o
HASH_Reset                                        lib\src\peripherals\stm32f4xx_hash.o
HASH_RestoreContext                               lib\src\peripherals\stm32f4xx_hash.o
HASH_SHA1                                         lib\src\peripherals\stm32f4xx_hash_sha1.o
HASH_SaveContext                                  lib\src\peripherals\stm32f4xx_hash.o
HASH_SetLastWordValidBitsNbr                      lib\src\peripherals\stm32f4xx_hash.o
                                                  lib\src\peripherals\stm32f4xx_hash_sha1.o
                                                  lib\src\peripherals\stm32f4xx_hash_md5.o
HASH_StartDigest                                  lib\src\peripherals\stm32f4xx_hash.o
                                                  lib\src\peripherals\stm32f4xx_hash_sha1.o
                                                  lib\src\peripherals\stm32f4xx_hash_md5.o
HASH_StructInit                                   lib\src\peripherals\stm32f4xx_hash.o
HMAC_MD5                                          lib\src\peripherals\stm32f4xx_hash_md5.o
HMAC_SHA1                                         lib\src\peripherals\stm32f4xx_hash_sha1.o
HardFault_Handler                                 src\stm32f4xx_it.o
                                                  lib\startup_stm32f4xx.o
I2C1_ER_IRQHandler                                lib\startup_stm32f4xx.o
I2C1_EV_IRQHandler                                lib\startup_stm32f4xx.o
I2C2_ER_IRQHandler                                lib\startup_stm32f4xx.o
I2C2_EV_IRQHandler                                lib\startup_stm32f4xx.o
I2C3_ER_IRQHandler                                lib\startup_stm32f4xx.o
I2C3_EV_IRQHandler                                lib\startup_stm32f4xx.o
I2C_ARPCmd                                        lib\src\peripherals\stm32f4xx_i2c.o
I2C_AcknowledgeConfig                             lib\src\peripherals\stm32f4xx_i2c.o
I2C_CalculatePEC                                  lib\src\peripherals\stm32f4xx_i2c.o
I2C_CheckEvent                                    lib\src\peripherals\stm32f4xx_i2c.o
I2C_ClearFlag                                     lib\src\peripherals\stm32f4xx_i2c.o
I2C_ClearITPendingBit                             lib\src\peripherals\stm32f4xx_i2c.o
I2C_Cmd                                           lib\src\peripherals\stm32f4xx_i2c.o
I2C_DMACmd                                        lib\src\peripherals\stm32f4xx_i2c.o
I2C_DMALastTransferCmd                            lib\src\peripherals\stm32f4xx_i2c.o
I2C_DeInit                                        lib\src\peripherals\stm32f4xx_i2c.o
I2C_DualAddressCmd                                lib\src\peripherals\stm32f4xx_i2c.o
I2C_FastModeDutyCycleConfig                       lib\src\peripherals\stm32f4xx_i2c.o
I2C_GeneralCallCmd                                lib\src\peripherals\stm32f4xx_i2c.o
I2C_GenerateSTART                                 lib\src\peripherals\stm32f4xx_i2c.o
I2C_GenerateSTOP                                  lib\src\peripherals\stm32f4xx_i2c.o
I2C_GetFlagStatus                                 lib\src\peripherals\stm32f4xx_i2c.o
I2C_GetITStatus                                   lib\src\peripherals\stm32f4xx_i2c.o
I2C_GetLastEvent                                  lib\src\peripherals\stm32f4xx_i2c.o
I2C_GetPEC                                        lib\src\peripherals\stm32f4xx_i2c.o
I2C_ITConfig                                      lib\src\peripherals\stm32f4xx_i2c.o
I2C_Init                                          lib\src\peripherals\stm32f4xx_i2c.o
I2C_NACKPositionConfig                            lib\src\peripherals\stm32f4xx_i2c.o
I2C_OwnAddress2Config                             lib\src\peripherals\stm32f4xx_i2c.o
I2C_PECPositionConfig                             lib\src\peripherals\stm32f4xx_i2c.o
I2C_ReadRegister                                  lib\src\peripherals\stm32f4xx_i2c.o
I2C_ReceiveData                                   lib\src\peripherals\stm32f4xx_i2c.o
I2C_SMBusAlertConfig                              lib\src\peripherals\stm32f4xx_i2c.o
I2C_Send7bitAddress                               lib\src\peripherals\stm32f4xx_i2c.o
I2C_SendData                                      lib\src\peripherals\stm32f4xx_i2c.o
I2C_SoftwareResetCmd                              lib\src\peripherals\stm32f4xx_i2c.o
I2C_StretchClockCmd                               lib\src\peripherals\stm32f4xx_i2c.o
I2C_StructInit                                    lib\src\peripherals\stm32f4xx_i2c.o
I2C_TransmitPEC                                   lib\src\peripherals\stm32f4xx_i2c.o
I2S_Cmd                                           lib\src\peripherals\stm32f4xx_spi.o
I2S_FullDuplexConfig                              lib\src\peripherals\stm32f4xx_spi.o
I2S_Init                                          lib\src\peripherals\stm32f4xx_spi.o
I2S_StructInit                                    lib\src\peripherals\stm32f4xx_spi.o
IWDG_Enable                                       lib\src\peripherals\stm32f4xx_iwdg.o
IWDG_GetFlagStatus                                lib\src\peripherals\stm32f4xx_iwdg.o
IWDG_ReloadCounter                                lib\src\peripherals\stm32f4xx_iwdg.o
IWDG_SetPrescaler                                 lib\src\peripherals\stm32f4xx_iwdg.o
IWDG_SetReload                                    lib\src\peripherals\stm32f4xx_iwdg.o
IWDG_WriteAccessCmd                               lib\src\peripherals\stm32f4xx_iwdg.o
InitializeAudio                                   src\Audio.o
                                                  src\main.o
MP3Decode                                         helix\mp3dec.o
                                                  src\main.o
MP3FindSyncWord                                   helix\mp3dec.o
                                                  src\main.o
MP3FreeDecoder                                    helix\mp3dec.o
MP3GetLastFrameInfo                               helix\mp3dec.o
                                                  src\main.o
MP3GetNextFrameInfo                               helix\mp3dec.o
MP3InitDecoder                                    helix\mp3dec.o
                                                  src\main.o
MemManage_Handler                                 src\stm32f4xx_it.o
                                                  lib\startup_stm32f4xx.o
NMI_Handler                                       src\stm32f4xx_it.o
                                                  lib\startup_stm32f4xx.o
NVIC_Init                                         lib\src\peripherals\misc.o
NVIC_PriorityGroupConfig                          lib\src\peripherals\misc.o
NVIC_SetVectorTable                               lib\src\peripherals\misc.o
NVIC_SystemLPConfig                               lib\src\peripherals\misc.o
OTG_FS_IRQHandler                                 lib\startup_stm32f4xx.o
OTG_FS_WKUP_IRQHandler                            lib\startup_stm32f4xx.o
OTG_HS_EP1_IN_IRQHandler                          lib\startup_stm32f4xx.o
OTG_HS_EP1_OUT_IRQHandler                         lib\startup_stm32f4xx.o
OTG_HS_IRQHandler                                 lib\startup_stm32f4xx.o
OTG_HS_WKUP_IRQHandler                            lib\startup_stm32f4xx.o
OutputAudioSample                                 src\Audio.o
OutputAudioSampleWithoutBlocking                  src\Audio.o
PVD_IRQHandler                                    lib\startup_stm32f4xx.o
PWR_BackupAccessCmd                               lib\src\peripherals\stm32f4xx_pwr.o
PWR_BackupRegulatorCmd                            lib\src\peripherals\stm32f4xx_pwr.o
PWR_ClearFlag                                     lib\src\peripherals\stm32f4xx_pwr.o
PWR_DeInit                                        lib\src\peripherals\stm32f4xx_pwr.o
PWR_EnterSTANDBYMode                              lib\src\peripherals\stm32f4xx_pwr.o
PWR_EnterSTOPMode                                 lib\src\peripherals\stm32f4xx_pwr.o
PWR_FlashPowerDownCmd                             lib\src\peripherals\stm32f4xx_pwr.o
PWR_GetFlagStatus                                 lib\src\peripherals\stm32f4xx_pwr.o
PWR_MainRegulatorModeConfig                       lib\src\peripherals\stm32f4xx_pwr.o
PWR_PVDCmd                                        lib\src\peripherals\stm32f4xx_pwr.o
PWR_PVDLevelConfig                                lib\src\peripherals\stm32f4xx_pwr.o
PWR_WakeUpPinCmd                                  lib\src\peripherals\stm32f4xx_pwr.o
PendSV_Handler                                    src\stm32f4xx_it.o
                                                  lib\startup_stm32f4xx.o
PlayAudioWithCallback                             src\Audio.o
                                                  src\main.o
ProvideAudioBuffer                                src\Audio.o
                                                  src\main.o
ProvideAudioBufferWithoutBlocking                 src\Audio.o
RCC_AHB1PeriphClockCmd                            lib\src\peripherals\stm32f4xx_rcc.o
                                                  src\main.o
                                                  src\Audio.o
RCC_AHB1PeriphClockLPModeCmd                      lib\src\peripherals\stm32f4xx_rcc.o
RCC_AHB1PeriphResetCmd                            lib\src\peripherals\stm32f4xx_rcc.o
                                                  lib\src\peripherals\stm32f4xx_gpio.o
RCC_AHB2PeriphClockCmd                            lib\src\peripherals\stm32f4xx_rcc.o
RCC_AHB2PeriphClockLPModeCmd                      lib\src\peripherals\stm32f4xx_rcc.o
RCC_AHB2PeriphResetCmd                            lib\src\peripherals\stm32f4xx_rcc.o
                                                  lib\src\peripherals\stm32f4xx_rng.o
                                                  lib\src\peripherals\stm32f4xx_hash.o
                                                  lib\src\peripherals\stm32f4xx_cryp.o
RCC_AHB3PeriphClockCmd                            lib\src\peripherals\stm32f4xx_rcc.o
RCC_AHB3PeriphClockLPModeCmd                      lib\src\peripherals\stm32f4xx_rcc.o
RCC_AHB3PeriphResetCmd                            lib\src\peripherals\stm32f4xx_rcc.o
RCC_APB1PeriphClockCmd                            lib\src\peripherals\stm32f4xx_rcc.o
                                                  src\main.o
                                                  src\Audio.o
RCC_APB1PeriphClockLPModeCmd                      lib\src\peripherals\stm32f4xx_rcc.o
RCC_APB1PeriphResetCmd                            lib\src\peripherals\stm32f4xx_rcc.o
                                                  src\Audio.o
                                                  lib\src\peripherals\stm32f4xx_wwdg.o
                                                  lib\src\peripherals\stm32f4xx_usart.o
                                                  lib\src\peripherals\stm32f4xx_tim.o
                                                  lib\src\peripherals\stm32f4xx_spi.o
                                                  lib\src\peripherals\stm32f4xx_pwr.o
                                                  lib\src\peripherals\stm32f4xx_i2c.o
                                                  lib\src\peripherals\stm32f4xx_dac.o
                                                  lib\src\peripherals\stm32f4xx_can.o
RCC_APB2PeriphClockCmd                            lib\src\peripherals\stm32f4xx_rcc.o
RCC_APB2PeriphClockLPModeCmd                      lib\src\peripherals\stm32f4xx_rcc.o
RCC_APB2PeriphResetCmd                            lib\src\peripherals\stm32f4xx_rcc.o
                                                  lib\src\peripherals\stm32f4xx_usart.o
                                                  lib\src\peripherals\stm32f4xx_tim.o
                                                  lib\src\peripherals\stm32f4xx_syscfg.o
                                                  lib\src\peripherals\stm32f4xx_spi.o
                                                  lib\src\peripherals\stm32f4xx_sdio.o
                                                  lib\src\peripherals\stm32f4xx_adc.o
RCC_AdjustHSICalibrationValue                     lib\src\peripherals\stm32f4xx_rcc.o
RCC_BackupResetCmd                                lib\src\peripherals\stm32f4xx_rcc.o
RCC_ClearFlag                                     lib\src\peripherals\stm32f4xx_rcc.o
RCC_ClearITPendingBit                             lib\src\peripherals\stm32f4xx_rcc.o
RCC_ClockSecuritySystemCmd                        lib\src\peripherals\stm32f4xx_rcc.o
RCC_DeInit                                        lib\src\peripherals\stm32f4xx_rcc.o
RCC_GetClocksFreq                                 lib\src\peripherals\stm32f4xx_rcc.o
                                                  lib\src\peripherals\stm32f4xx_usart.o
                                                  lib\src\peripherals\stm32f4xx_i2c.o
RCC_GetFlagStatus                                 lib\src\peripherals\stm32f4xx_rcc.o
RCC_GetITStatus                                   lib\src\peripherals\stm32f4xx_rcc.o
RCC_GetSYSCLKSource                               lib\src\peripherals\stm32f4xx_rcc.o
RCC_HCLKConfig                                    lib\src\peripherals\stm32f4xx_rcc.o
RCC_HSEConfig                                     lib\src\peripherals\stm32f4xx_rcc.o
RCC_HSICmd                                        lib\src\peripherals\stm32f4xx_rcc.o
RCC_I2SCLKConfig                                  lib\src\peripherals\stm32f4xx_rcc.o
RCC_IRQHandler                                    lib\startup_stm32f4xx.o
RCC_ITConfig                                      lib\src\peripherals\stm32f4xx_rcc.o
RCC_LSEConfig                                     lib\src\peripherals\stm32f4xx_rcc.o
RCC_LSICmd                                        lib\src\peripherals\stm32f4xx_rcc.o
RCC_MCO1Config                                    lib\src\peripherals\stm32f4xx_rcc.o
RCC_MCO2Config                                    lib\src\peripherals\stm32f4xx_rcc.o
RCC_PCLK1Config                                   lib\src\peripherals\stm32f4xx_rcc.o
RCC_PCLK2Config                                   lib\src\peripherals\stm32f4xx_rcc.o
RCC_PLLCmd                                        lib\src\peripherals\stm32f4xx_rcc.o
RCC_PLLConfig                                     lib\src\peripherals\stm32f4xx_rcc.o
RCC_PLLI2SCmd                                     lib\src\peripherals\stm32f4xx_rcc.o
RCC_PLLI2SConfig                                  lib\src\peripherals\stm32f4xx_rcc.o
RCC_RTCCLKCmd                                     lib\src\peripherals\stm32f4xx_rcc.o
RCC_RTCCLKConfig                                  lib\src\peripherals\stm32f4xx_rcc.o
RCC_SYSCLKConfig                                  lib\src\peripherals\stm32f4xx_rcc.o
RCC_WaitForHSEStartUp                             lib\src\peripherals\stm32f4xx_rcc.o
RNG_ClearFlag                                     lib\src\peripherals\stm32f4xx_rng.o
RNG_ClearITPendingBit                             lib\src\peripherals\stm32f4xx_rng.o
RNG_Cmd                                           lib\src\peripherals\stm32f4xx_rng.o
RNG_DeInit                                        lib\src\peripherals\stm32f4xx_rng.o
RNG_GetFlagStatus                                 lib\src\peripherals\stm32f4xx_rng.o
RNG_GetITStatus                                   lib\src\peripherals\stm32f4xx_rng.o
RNG_GetRandomNumber                               lib\src\peripherals\stm32f4xx_rng.o
RNG_ITConfig                                      lib\src\peripherals\stm32f4xx_rng.o
RTC_AlarmCmd                                      lib\src\peripherals\stm32f4xx_rtc.o
RTC_AlarmStructInit                               lib\src\peripherals\stm32f4xx_rtc.o
RTC_AlarmSubSecondConfig                          lib\src\peripherals\stm32f4xx_rtc.o
RTC_Alarm_IRQHandler                              lib\startup_stm32f4xx.o
RTC_BypassShadowCmd                               lib\src\peripherals\stm32f4xx_rtc.o
RTC_CalibOutputCmd                                lib\src\peripherals\stm32f4xx_rtc.o
RTC_CalibOutputConfig                             lib\src\peripherals\stm32f4xx_rtc.o
RTC_ClearFlag                                     lib\src\peripherals\stm32f4xx_rtc.o
RTC_ClearITPendingBit                             lib\src\peripherals\stm32f4xx_rtc.o
RTC_CoarseCalibCmd                                lib\src\peripherals\stm32f4xx_rtc.o
RTC_CoarseCalibConfig                             lib\src\peripherals\stm32f4xx_rtc.o
RTC_DateStructInit                                lib\src\peripherals\stm32f4xx_rtc.o
RTC_DayLightSavingConfig                          lib\src\peripherals\stm32f4xx_rtc.o
RTC_DeInit                                        lib\src\peripherals\stm32f4xx_rtc.o
RTC_EnterInitMode                                 lib\src\peripherals\stm32f4xx_rtc.o
RTC_ExitInitMode                                  lib\src\peripherals\stm32f4xx_rtc.o
RTC_GetAlarm                                      lib\src\peripherals\stm32f4xx_rtc.o
RTC_GetAlarmSubSecond                             lib\src\peripherals\stm32f4xx_rtc.o
RTC_GetDate                                       lib\src\peripherals\stm32f4xx_rtc.o
RTC_GetFlagStatus                                 lib\src\peripherals\stm32f4xx_rtc.o
RTC_GetITStatus                                   lib\src\peripherals\stm32f4xx_rtc.o
RTC_GetStoreOperation                             lib\src\peripherals\stm32f4xx_rtc.o
RTC_GetSubSecond                                  lib\src\peripherals\stm32f4xx_rtc.o
RTC_GetTime                                       lib\src\peripherals\stm32f4xx_rtc.o
RTC_GetTimeStamp                                  lib\src\peripherals\stm32f4xx_rtc.o
RTC_GetTimeStampSubSecond                         lib\src\peripherals\stm32f4xx_rtc.o
RTC_GetWakeUpCounter                              lib\src\peripherals\stm32f4xx_rtc.o
RTC_ITConfig                                      lib\src\peripherals\stm32f4xx_rtc.o
RTC_Init                                          lib\src\peripherals\stm32f4xx_rtc.o
RTC_OutputConfig                                  lib\src\peripherals\stm32f4xx_rtc.o
RTC_OutputTypeConfig                              lib\src\peripherals\stm32f4xx_rtc.o
RTC_ReadBackupRegister                            lib\src\peripherals\stm32f4xx_rtc.o
RTC_RefClockCmd                                   lib\src\peripherals\stm32f4xx_rtc.o
RTC_SetAlarm                                      lib\src\peripherals\stm32f4xx_rtc.o
RTC_SetDate                                       lib\src\peripherals\stm32f4xx_rtc.o
RTC_SetTime                                       lib\src\peripherals\stm32f4xx_rtc.o
RTC_SetWakeUpCounter                              lib\src\peripherals\stm32f4xx_rtc.o
RTC_SmoothCalibConfig                             lib\src\peripherals\stm32f4xx_rtc.o
RTC_StructInit                                    lib\src\peripherals\stm32f4xx_rtc.o
RTC_SynchroShiftConfig                            lib\src\peripherals\stm32f4xx_rtc.o
RTC_TamperCmd                                     lib\src\peripherals\stm32f4xx_rtc.o
RTC_TamperFilterConfig                            lib\src\peripherals\stm32f4xx_rtc.o
RTC_TamperPinSelection                            lib\src\peripherals\stm32f4xx_rtc.o
RTC_TamperPinsPrechargeDuration                   lib\src\peripherals\stm32f4xx_rtc.o
RTC_TamperPullUpCmd                               lib\src\peripherals\stm32f4xx_rtc.o
RTC_TamperSamplingFreqConfig                      lib\src\peripherals\stm32f4xx_rtc.o
RTC_TamperTriggerConfig                           lib\src\peripherals\stm32f4xx_rtc.o
RTC_TimeStampCmd                                  lib\src\peripherals\stm32f4xx_rtc.o
RTC_TimeStampOnTamperDetectionCmd                 lib\src\peripherals\stm32f4xx_rtc.o
RTC_TimeStampPinSelection                         lib\src\peripherals\stm32f4xx_rtc.o
RTC_TimeStructInit                                lib\src\peripherals\stm32f4xx_rtc.o
RTC_WKUP_IRQHandler                               lib\startup_stm32f4xx.o
RTC_WaitForSynchro                                lib\src\peripherals\stm32f4xx_rtc.o
RTC_WakeUpClockConfig                             lib\src\peripherals\stm32f4xx_rtc.o
RTC_WakeUpCmd                                     lib\src\peripherals\stm32f4xx_rtc.o
RTC_WriteBackupRegister                           lib\src\peripherals\stm32f4xx_rtc.o
RTC_WriteProtectionCmd                            lib\src\peripherals\stm32f4xx_rtc.o
Reset_Handler                                     lib\startup_stm32f4xx.o
SDIO_CEATAITCmd                                   lib\src\peripherals\stm32f4xx_sdio.o
SDIO_ClearFlag                                    lib\src\peripherals\stm32f4xx_sdio.o
SDIO_ClearITPendingBit                            lib\src\peripherals\stm32f4xx_sdio.o
SDIO_ClockCmd                                     lib\src\peripherals\stm32f4xx_sdio.o
SDIO_CmdStructInit                                lib\src\peripherals\stm32f4xx_sdio.o
SDIO_CommandCompletionCmd                         lib\src\peripherals\stm32f4xx_sdio.o
SDIO_DMACmd                                       lib\src\peripherals\stm32f4xx_sdio.o
SDIO_DataConfig                                   lib\src\peripherals\stm32f4xx_sdio.o
SDIO_DataStructInit                               lib\src\peripherals\stm32f4xx_sdio.o
SDIO_DeInit                                       lib\src\peripherals\stm32f4xx_sdio.o
SDIO_GetCommandResponse                           lib\src\peripherals\stm32f4xx_sdio.o
SDIO_GetDataCounter                               lib\src\peripherals\stm32f4xx_sdio.o
SDIO_GetFIFOCount                                 lib\src\peripherals\stm32f4xx_sdio.o
SDIO_GetFlagStatus                                lib\src\peripherals\stm32f4xx_sdio.o
SDIO_GetITStatus                                  lib\src\peripherals\stm32f4xx_sdio.o
SDIO_GetPowerState                                lib\src\peripherals\stm32f4xx_sdio.o
SDIO_GetResponse                                  lib\src\peripherals\stm32f4xx_sdio.o
SDIO_IRQHandler                                   lib\startup_stm32f4xx.o
SDIO_ITConfig                                     lib\src\peripherals\stm32f4xx_sdio.o
SDIO_Init                                         lib\src\peripherals\stm32f4xx_sdio.o
SDIO_ReadData                                     lib\src\peripherals\stm32f4xx_sdio.o
SDIO_SendCEATACmd                                 lib\src\peripherals\stm32f4xx_sdio.o
SDIO_SendCommand                                  lib\src\peripherals\stm32f4xx_sdio.o
SDIO_SendSDIOSuspendCmd                           lib\src\peripherals\stm32f4xx_sdio.o
SDIO_SetPowerState                                lib\src\peripherals\stm32f4xx_sdio.o
SDIO_SetSDIOOperation                             lib\src\peripherals\stm32f4xx_sdio.o
SDIO_SetSDIOReadWaitMode                          lib\src\peripherals\stm32f4xx_sdio.o
SDIO_StartSDIOReadWait                            lib\src\peripherals\stm32f4xx_sdio.o
SDIO_StopSDIOReadWait                             lib\src\peripherals\stm32f4xx_sdio.o
SDIO_StructInit                                   lib\src\peripherals\stm32f4xx_sdio.o
SDIO_WriteData                                    lib\src\peripherals\stm32f4xx_sdio.o
SPI1_IRQHandler                                   lib\startup_stm32f4xx.o
SPI2_IRQHandler                                   lib\startup_stm32f4xx.o
SPI3_IRQHandler                                   lib\startup_stm32f4xx.o
SPI_BiDirectionalLineConfig                       lib\src\peripherals\stm32f4xx_spi.o
SPI_CalculateCRC                                  lib\src\peripherals\stm32f4xx_spi.o
SPI_Cmd                                           lib\src\peripherals\stm32f4xx_spi.o
SPI_DataSizeConfig                                lib\src\peripherals\stm32f4xx_spi.o
SPI_GetCRC                                        lib\src\peripherals\stm32f4xx_spi.o
SPI_GetCRCPolynomial                              lib\src\peripherals\stm32f4xx_spi.o
SPI_I2S_ClearFlag                                 lib\src\peripherals\stm32f4xx_spi.o
SPI_I2S_ClearITPendingBit                         lib\src\peripherals\stm32f4xx_spi.o
SPI_I2S_DMACmd                                    lib\src\peripherals\stm32f4xx_spi.o
SPI_I2S_DeInit                                    lib\src\peripherals\stm32f4xx_spi.o
SPI_I2S_GetFlagStatus                             lib\src\peripherals\stm32f4xx_spi.o
SPI_I2S_GetITStatus                               lib\src\peripherals\stm32f4xx_spi.o
SPI_I2S_ITConfig                                  lib\src\peripherals\stm32f4xx_spi.o
SPI_I2S_ReceiveData                               lib\src\peripherals\stm32f4xx_spi.o
SPI_I2S_SendData                                  lib\src\peripherals\stm32f4xx_spi.o
SPI_Init                                          lib\src\peripherals\stm32f4xx_spi.o
SPI_NSSInternalSoftwareConfig                     lib\src\peripherals\stm32f4xx_spi.o
SPI_SSOutputCmd                                   lib\src\peripherals\stm32f4xx_spi.o
SPI_StructInit                                    lib\src\peripherals\stm32f4xx_spi.o
SPI_TIModeCmd                                     lib\src\peripherals\stm32f4xx_spi.o
SPI_TransmitCRC                                   lib\src\peripherals\stm32f4xx_spi.o
SVC_Handler                                       src\stm32f4xx_it.o
                                                  lib\startup_stm32f4xx.o
SYSCFG_CompensationCellCmd                        lib\src\peripherals\stm32f4xx_syscfg.o
SYSCFG_DeInit                                     lib\src\peripherals\stm32f4xx_syscfg.o
SYSCFG_ETH_MediaInterfaceConfig                   lib\src\peripherals\stm32f4xx_syscfg.o
SYSCFG_EXTILineConfig                             lib\src\peripherals\stm32f4xx_syscfg.o
SYSCFG_GetCompensationCellStatus                  lib\src\peripherals\stm32f4xx_syscfg.o
SYSCFG_MemoryRemapConfig                          lib\src\peripherals\stm32f4xx_syscfg.o
SetAudioVolume                                    src\Audio.o
                                                  src\main.o
StopAudio                                         src\Audio.o
SysTick_CLKSourceConfig                           lib\src\peripherals\misc.o
SysTick_Handler                                   src\stm32f4xx_it.o
                                                  lib\startup_stm32f4xx.o
SystemCoreClock                                   src\system_stm32f4xx.o
                                                  src\main.o
SystemCoreClockUpdate                             src\system_stm32f4xx.o
SystemInit                                        src\system_stm32f4xx.o
                                                  lib\startup_stm32f4xx.o
TAMP_STAMP_IRQHandler                             lib\startup_stm32f4xx.o
TIM1_BRK_TIM9_IRQHandler                          lib\startup_stm32f4xx.o
TIM1_CC_IRQHandler                                lib\startup_stm32f4xx.o
TIM1_TRG_COM_TIM11_IRQHandler                     lib\startup_stm32f4xx.o
TIM1_UP_TIM10_IRQHandler                          lib\startup_stm32f4xx.o
TIM2_IRQHandler                                   lib\startup_stm32f4xx.o
TIM3_IRQHandler                                   lib\startup_stm32f4xx.o
TIM4_IRQHandler                                   lib\startup_stm32f4xx.o
TIM5_IRQHandler                                   lib\startup_stm32f4xx.o
TIM6_DAC_IRQHandler                               lib\startup_stm32f4xx.o
TIM7_IRQHandler                                   lib\startup_stm32f4xx.o
TIM8_BRK_TIM12_IRQHandler                         lib\startup_stm32f4xx.o
TIM8_CC_IRQHandler                                lib\startup_stm32f4xx.o
TIM8_TRG_COM_TIM14_IRQHandler                     lib\startup_stm32f4xx.o
TIM8_UP_TIM13_IRQHandler                          lib\startup_stm32f4xx.o
TIM_ARRPreloadConfig                              lib\src\peripherals\stm32f4xx_tim.o
TIM_BDTRConfig                                    lib\src\peripherals\stm32f4xx_tim.o
TIM_BDTRStructInit                                lib\src\peripherals\stm32f4xx_tim.o
TIM_CCPreloadControl                              lib\src\peripherals\stm32f4xx_tim.o
TIM_CCxCmd                                        lib\src\peripherals\stm32f4xx_tim.o
TIM_CCxNCmd                                       lib\src\peripherals\stm32f4xx_tim.o
TIM_ClearFlag                                     lib\src\peripherals\stm32f4xx_tim.o
TIM_ClearITPendingBit                             lib\src\peripherals\stm32f4xx_tim.o
TIM_ClearOC1Ref                                   lib\src\peripherals\stm32f4xx_tim.o
TIM_ClearOC2Ref                                   lib\src\peripherals\stm32f4xx_tim.o
TIM_ClearOC3Ref                                   lib\src\peripherals\stm32f4xx_tim.o
TIM_ClearOC4Ref                                   lib\src\peripherals\stm32f4xx_tim.o
TIM_Cmd                                           lib\src\peripherals\stm32f4xx_tim.o
TIM_CounterModeConfig                             lib\src\peripherals\stm32f4xx_tim.o
TIM_CtrlPWMOutputs                                lib\src\peripherals\stm32f4xx_tim.o
TIM_DMACmd                                        lib\src\peripherals\stm32f4xx_tim.o
TIM_DMAConfig                                     lib\src\peripherals\stm32f4xx_tim.o
TIM_DeInit                                        lib\src\peripherals\stm32f4xx_tim.o
TIM_ETRClockMode1Config                           lib\src\peripherals\stm32f4xx_tim.o
TIM_ETRClockMode2Config                           lib\src\peripherals\stm32f4xx_tim.o
TIM_ETRConfig                                     lib\src\peripherals\stm32f4xx_tim.o
TIM_EncoderInterfaceConfig                        lib\src\peripherals\stm32f4xx_tim.o
TIM_ForcedOC1Config                               lib\src\peripherals\stm32f4xx_tim.o
TIM_ForcedOC2Config                               lib\src\peripherals\stm32f4xx_tim.o
TIM_ForcedOC3Config                               lib\src\peripherals\stm32f4xx_tim.o
TIM_ForcedOC4Config                               lib\src\peripherals\stm32f4xx_tim.o
TIM_GenerateEvent                                 lib\src\peripherals\stm32f4xx_tim.o
TIM_GetCapture1                                   lib\src\peripherals\stm32f4xx_tim.o
TIM_GetCapture2                                   lib\src\peripherals\stm32f4xx_tim.o
TIM_GetCapture3                                   lib\src\peripherals\stm32f4xx_tim.o
TIM_GetCapture4                                   lib\src\peripherals\stm32f4xx_tim.o
TIM_GetCounter                                    lib\src\peripherals\stm32f4xx_tim.o
TIM_GetFlagStatus                                 lib\src\peripherals\stm32f4xx_tim.o
TIM_GetITStatus                                   lib\src\peripherals\stm32f4xx_tim.o
TIM_GetPrescaler                                  lib\src\peripherals\stm32f4xx_tim.o
TIM_ICInit                                        lib\src\peripherals\stm32f4xx_tim.o
TIM_ICStructInit                                  lib\src\peripherals\stm32f4xx_tim.o
TIM_ITConfig                                      lib\src\peripherals\stm32f4xx_tim.o
TIM_ITRxExternalClockConfig                       lib\src\peripherals\stm32f4xx_tim.o
TIM_InternalClockConfig                           lib\src\peripherals\stm32f4xx_tim.o
TIM_OC1FastConfig                                 lib\src\peripherals\stm32f4xx_tim.o
TIM_OC1Init                                       lib\src\peripherals\stm32f4xx_tim.o
TIM_OC1NPolarityConfig                            lib\src\peripherals\stm32f4xx_tim.o
TIM_OC1PolarityConfig                             lib\src\peripherals\stm32f4xx_tim.o
TIM_OC1PreloadConfig                              lib\src\peripherals\stm32f4xx_tim.o
TIM_OC2FastConfig                                 lib\src\peripherals\stm32f4xx_tim.o
TIM_OC2Init                                       lib\src\peripherals\stm32f4xx_tim.o
TIM_OC2NPolarityConfig                            lib\src\peripherals\stm32f4xx_tim.o
TIM_OC2PolarityConfig                             lib\src\peripherals\stm32f4xx_tim.o
TIM_OC2PreloadConfig                              lib\src\peripherals\stm32f4xx_tim.o
TIM_OC3FastConfig                                 lib\src\peripherals\stm32f4xx_tim.o
TIM_OC3Init                                       lib\src\peripherals\stm32f4xx_tim.o
TIM_OC3NPolarityConfig                            lib\src\peripherals\stm32f4xx_tim.o
TIM_OC3PolarityConfig                             lib\src\peripherals\stm32f4xx_tim.o
TIM_OC3PreloadConfig                              lib\src\peripherals\stm32f4xx_tim.o
TIM_OC4FastConfig                                 lib\src\peripherals\stm32f4xx_tim.o
TIM_OC4Init                                       lib\src\peripherals\stm32f4xx_tim.o
TIM_OC4PolarityConfig                             lib\src\peripherals\stm32f4xx_tim.o
TIM_OC4PreloadConfig                              lib\src\peripherals\stm32f4xx_tim.o
TIM_OCStructInit                                  lib\src\peripherals\stm32f4xx_tim.o
TIM_PWMIConfig                                    lib\src\peripherals\stm32f4xx_tim.o
TIM_PrescalerConfig                               lib\src\peripherals\stm32f4xx_tim.o
TIM_RemapConfig                                   lib\src\peripherals\stm32f4xx_tim.o
TIM_SelectCCDMA                                   lib\src\peripherals\stm32f4xx_tim.o
TIM_SelectCOM                                     lib\src\peripherals\stm32f4xx_tim.o
TIM_SelectHallSensor                              lib\src\peripherals\stm32f4xx_tim.o
TIM_SelectInputTrigger                            lib\src\peripherals\stm32f4xx_tim.o
TIM_SelectMasterSlaveMode                         lib\src\peripherals\stm32f4xx_tim.o
TIM_SelectOCxM                                    lib\src\peripherals\stm32f4xx_tim.o
TIM_SelectOnePulseMode                            lib\src\peripherals\stm32f4xx_tim.o
TIM_SelectOutputTrigger                           lib\src\peripherals\stm32f4xx_tim.o
TIM_SelectSlaveMode                               lib\src\peripherals\stm32f4xx_tim.o
TIM_SetAutoreload                                 lib\src\peripherals\stm32f4xx_tim.o
TIM_SetClockDivision                              lib\src\peripherals\stm32f4xx_tim.o
TIM_SetCompare1                                   lib\src\peripherals\stm32f4xx_tim.o
TIM_SetCompare2                                   lib\src\peripherals\stm32f4xx_tim.o
TIM_SetCompare3                                   lib\src\peripherals\stm32f4xx_tim.o
TIM_SetCompare4                                   lib\src\peripherals\stm32f4xx_tim.o
TIM_SetCounter                                    lib\src\peripherals\stm32f4xx_tim.o
TIM_SetIC1Prescaler                               lib\src\peripherals\stm32f4xx_tim.o
TIM_SetIC2Prescaler                               lib\src\peripherals\stm32f4xx_tim.o
TIM_SetIC3Prescaler                               lib\src\peripherals\stm32f4xx_tim.o
TIM_SetIC4Prescaler                               lib\src\peripherals\stm32f4xx_tim.o
TIM_TIxExternalClockConfig                        lib\src\peripherals\stm32f4xx_tim.o
TIM_TimeBaseInit                                  lib\src\peripherals\stm32f4xx_tim.o
TIM_TimeBaseStructInit                            lib\src\peripherals\stm32f4xx_tim.o
TIM_UpdateDisableConfig                           lib\src\peripherals\stm32f4xx_tim.o
TIM_UpdateRequestConfig                           lib\src\peripherals\stm32f4xx_tim.o
UART4_IRQHandler                                  lib\startup_stm32f4xx.o
UART5_IRQHandler                                  lib\startup_stm32f4xx.o
USART1_IRQHandler                                 lib\startup_stm32f4xx.o
USART2_IRQHandler                                 lib\startup_stm32f4xx.o
USART3_IRQHandler                                 lib\startup_stm32f4xx.o
USART6_IRQHandler                                 lib\startup_stm32f4xx.o
USART_ClearFlag                                   lib\src\peripherals\stm32f4xx_usart.o
USART_ClearITPendingBit                           lib\src\peripherals\stm32f4xx_usart.o
USART_ClockInit                                   lib\src\peripherals\stm32f4xx_usart.o
USART_ClockStructInit                             lib\src\peripherals\stm32f4xx_usart.o
USART_Cmd                                         lib\src\peripherals\stm32f4xx_usart.o
                                                  src\main.o
USART_DMACmd                                      lib\src\peripherals\stm32f4xx_usart.o
USART_DeInit                                      lib\src\peripherals\stm32f4xx_usart.o
USART_GetFlagStatus                               lib\src\peripherals\stm32f4xx_usart.o
                                                  src\syscalls.o
USART_GetITStatus                                 lib\src\peripherals\stm32f4xx_usart.o
USART_HalfDuplexCmd                               lib\src\peripherals\stm32f4xx_usart.o
USART_ITConfig                                    lib\src\peripherals\stm32f4xx_usart.o
USART_Init                                        lib\src\peripherals\stm32f4xx_usart.o
                                                  src\main.o
USART_IrDACmd                                     lib\src\peripherals\stm32f4xx_usart.o
USART_IrDAConfig                                  lib\src\peripherals\stm32f4xx_usart.o
USART_LINBreakDetectLengthConfig                  lib\src\peripherals\stm32f4xx_usart.o
USART_LINCmd                                      lib\src\peripherals\stm32f4xx_usart.o
USART_OneBitMethodCmd                             lib\src\peripherals\stm32f4xx_usart.o
USART_OverSampling8Cmd                            lib\src\peripherals\stm32f4xx_usart.o
USART_ReceiveData                                 lib\src\peripherals\stm32f4xx_usart.o
USART_ReceiverWakeUpCmd                           lib\src\peripherals\stm32f4xx_usart.o
USART_SendBreak                                   lib\src\peripherals\stm32f4xx_usart.o
USART_SendData                                    lib\src\peripherals\stm32f4xx_usart.o
                                                  src\syscalls.o
USART_SetAddress                                  lib\src\peripherals\stm32f4xx_usart.o
USART_SetGuardTime                                lib\src\peripherals\stm32f4xx_usart.o
USART_SetPrescaler                                lib\src\peripherals\stm32f4xx_usart.o
USART_SmartCardCmd                                lib\src\peripherals\stm32f4xx_usart.o
USART_SmartCardNACKCmd                            lib\src\peripherals\stm32f4xx_usart.o
USART_StructInit                                  lib\src\peripherals\stm32f4xx_usart.o
USART_WakeUpConfig                                lib\src\peripherals\stm32f4xx_usart.o
UsageFault_Handler                                src\stm32f4xx_it.o
                                                  lib\startup_stm32f4xx.o
WWDG_ClearFlag                                    lib\src\peripherals\stm32f4xx_wwdg.o
WWDG_DeInit                                       lib\src\peripherals\stm32f4xx_wwdg.o
WWDG_Enable                                       lib\src\peripherals\stm32f4xx_wwdg.o
WWDG_EnableIT                                     lib\src\peripherals\stm32f4xx_wwdg.o
WWDG_GetFlagStatus                                lib\src\peripherals\stm32f4xx_wwdg.o
WWDG_IRQHandler                                   lib\startup_stm32f4xx.o
WWDG_SetCounter                                   lib\src\peripherals\stm32f4xx_wwdg.o
WWDG_SetPrescaler                                 lib\src\peripherals\stm32f4xx_wwdg.o
WWDG_SetWindowValue                               lib\src\peripherals\stm32f4xx_wwdg.o
__adddf3                                          c:/program files/atollic/truestudio for stm32 9.0.1/armtools/bin/../lib/gcc/arm-atollic-eabi/6.3.1/armv7e-m/fpu\libgcc.a(_arm_addsubdf3.o)
__aeabi_cdcmpeq                                   c:/program files/atollic/truestudio for stm32 9.0.1/armtools/bin/../lib/gcc/arm-atollic-eabi/6.3.1/armv7e-m/fpu\libgcc.a(_arm_cmpdf2.o)
__aeabi_cdcmple                                   c:/program files/atollic/truestudio for stm32 9.0.1/armtools/bin/../lib/gcc/arm-atollic-eabi/6.3.1/armv7e-m/fpu\libgcc.a(_arm_cmpdf2.o)
__aeabi_cdrcmple                                  c:/program files/atollic/truestudio for stm32 9.0.1/armtools/bin/../lib/gcc/arm-atollic-eabi/6.3.1/armv7e-m/fpu\libgcc.a(_arm_cmpdf2.o)
__aeabi_d2f                                       c:/program files/atollic/truestudio for stm32 9.0.1/armtools/bin/../lib/gcc/arm-atollic-eabi/6.3.1/armv7e-m/fpu\libgcc.a(_arm_truncdfsf2.o)
                                                  c:/program files/atollic/truestudio for stm32 9.0.1/armtools/bin/../lib/gcc/arm-atollic-eabi/6.3.1/../../../../arm-atollic-eabi/lib/armv7e-m/fpu\libm.a(lib_a-wf_pow.o)
__aeabi_dadd                                      c:/program files/atollic/truestudio for stm32 9.0.1/armtools/bin/../lib/gcc/arm-atollic-eabi/6.3.1/armv7e-m/fpu\libgcc.a(_arm_addsubdf3.o)
                                                  c:/program files/atollic/truestudio for stm32 9.0.1/armtools/bin/../lib/gcc/arm-atollic-eabi/6.3.1/../../../../arm-atollic-eabi/lib/armv7e-m/fpu\libm.a(lib_a-s_rint.o)
__aeabi_dcmpeq                                    c:/program files/atollic/truestudio for stm32 9.0.1/armtools/bin/../lib/gcc/arm-atollic-eabi/6.3.1/armv7e-m/fpu\libgcc.a(_arm_cmpdf2.o)
                                                  c:/program files/atollic/truestudio for stm32 9.0.1/armtools/bin/../lib/gcc/arm-atollic-eabi/6.3.1/../../../../arm-atollic-eabi/lib/armv7e-m/fpu\libm.a(lib_a-wf_pow.o)
__aeabi_dcmpge                                    c:/program files/atollic/truestudio for stm32 9.0.1/armtools/bin/../lib/gcc/arm-atollic-eabi/6.3.1/armv7e-m/fpu\libgcc.a(_arm_cmpdf2.o)
__aeabi_dcmpgt                                    c:/program files/atollic/truestudio for stm32 9.0.1/armtools/bin/../lib/gcc/arm-atollic-eabi/6.3.1/armv7e-m/fpu\libgcc.a(_arm_cmpdf2.o)
__aeabi_dcmple                                    c:/program files/atollic/truestudio for stm32 9.0.1/armtools/bin/../lib/gcc/arm-atollic-eabi/6.3.1/armv7e-m/fpu\libgcc.a(_arm_cmpdf2.o)
__aeabi_dcmplt                                    c:/program files/atollic/truestudio for stm32 9.0.1/armtools/bin/../lib/gcc/arm-atollic-eabi/6.3.1/armv7e-m/fpu\libgcc.a(_arm_cmpdf2.o)
__aeabi_ddiv                                      c:/program files/atollic/truestudio for stm32 9.0.1/armtools/bin/../lib/gcc/arm-atollic-eabi/6.3.1/armv7e-m/fpu\libgcc.a(_arm_muldivdf3.o)
                                                  c:/program files/atollic/truestudio for stm32 9.0.1/armtools/bin/../lib/gcc/arm-atollic-eabi/6.3.1/../../../../arm-atollic-eabi/lib/armv7e-m/fpu\libm.a(lib_a-wf_pow.o)
__aeabi_dmul                                      c:/program files/atollic/truestudio for stm32 9.0.1/armtools/bin/../lib/gcc/arm-atollic-eabi/6.3.1/armv7e-m/fpu\libgcc.a(_arm_muldivdf3.o)
__aeabi_drsub                                     c:/program files/atollic/truestudio for stm32 9.0.1/armtools/bin/../lib/gcc/arm-atollic-eabi/6.3.1/armv7e-m/fpu\libgcc.a(_arm_addsubdf3.o)
__aeabi_dsub                                      c:/program files/atollic/truestudio for stm32 9.0.1/armtools/bin/../lib/gcc/arm-atollic-eabi/6.3.1/armv7e-m/fpu\libgcc.a(_arm_addsubdf3.o)
                                                  c:/program files/atollic/truestudio for stm32 9.0.1/armtools/bin/../lib/gcc/arm-atollic-eabi/6.3.1/../../../../arm-atollic-eabi/lib/armv7e-m/fpu\libm.a(lib_a-s_rint.o)
__aeabi_f2d                                       c:/program files/atollic/truestudio for stm32 9.0.1/armtools/bin/../lib/gcc/arm-atollic-eabi/6.3.1/armv7e-m/fpu\libgcc.a(_arm_addsubdf3.o)
                                                  c:/program files/atollic/truestudio for stm32 9.0.1/armtools/bin/../lib/gcc/arm-atollic-eabi/6.3.1/../../../../arm-atollic-eabi/lib/armv7e-m/fpu\libm.a(lib_a-wf_pow.o)
__aeabi_i2d                                       c:/program files/atollic/truestudio for stm32 9.0.1/armtools/bin/../lib/gcc/arm-atollic-eabi/6.3.1/armv7e-m/fpu\libgcc.a(_arm_addsubdf3.o)
__aeabi_l2d                                       c:/program files/atollic/truestudio for stm32 9.0.1/armtools/bin/../lib/gcc/arm-atollic-eabi/6.3.1/armv7e-m/fpu\libgcc.a(_arm_addsubdf3.o)
__aeabi_ui2d                                      c:/program files/atollic/truestudio for stm32 9.0.1/armtools/bin/../lib/gcc/arm-atollic-eabi/6.3.1/armv7e-m/fpu\libgcc.a(_arm_addsubdf3.o)
__aeabi_ul2d                                      c:/program files/atollic/truestudio for stm32 9.0.1/armtools/bin/../lib/gcc/arm-atollic-eabi/6.3.1/armv7e-m/fpu\libgcc.a(_arm_addsubdf3.o)
__cmpdf2                                          c:/program files/atollic/truestudio for stm32 9.0.1/armtools/bin/../lib/gcc/arm-atollic-eabi/6.3.1/armv7e-m/fpu\libgcc.a(_arm_cmpdf2.o)
__deregister_frame_info                           c:/program files/atollic/truestudio for stm32 9.0.1/armtools/bin/../lib/gcc/arm-atollic-eabi/6.3.1/armv7e-m/fpu/crtbegin.o
__divdf3                                          c:/program files/atollic/truestudio for stm32 9.0.1/armtools/bin/../lib/gcc/arm-atollic-eabi/6.3.1/armv7e-m/fpu\libgcc.a(_arm_muldivdf3.o)
__dso_handle                                      c:/program files/atollic/truestudio for stm32 9.0.1/armtools/bin/../lib/gcc/arm-atollic-eabi/6.3.1/armv7e-m/fpu/crtbegin.o
__eqdf2                                           c:/program files/atollic/truestudio for stm32 9.0.1/armtools/bin/../lib/gcc/arm-atollic-eabi/6.3.1/armv7e-m/fpu\libgcc.a(_arm_cmpdf2.o)
__errno                                           src\syscalls.o
                                                  c:/program files/atollic/truestudio for stm32 9.0.1/armtools/bin/../lib/gcc/arm-atollic-eabi/6.3.1/../../../../arm-atollic-eabi/lib/armv7e-m/fpu\libm.a(lib_a-wf_pow.o)
__extendsfdf2                                     c:/program files/atollic/truestudio for stm32 9.0.1/armtools/bin/../lib/gcc/arm-atollic-eabi/6.3.1/armv7e-m/fpu\libgcc.a(_arm_addsubdf3.o)
__fdlib_version                                   c:/program files/atollic/truestudio for stm32 9.0.1/armtools/bin/../lib/gcc/arm-atollic-eabi/6.3.1/../../../../arm-atollic-eabi/lib/armv7e-m/fpu\libm.a(lib_a-s_lib_ver.o)
                                                  c:/program files/atollic/truestudio for stm32 9.0.1/armtools/bin/../lib/gcc/arm-atollic-eabi/6.3.1/../../../../arm-atollic-eabi/lib/armv7e-m/fpu\libm.a(lib_a-wf_pow.o)
__floatdidf                                       c:/program files/atollic/truestudio for stm32 9.0.1/armtools/bin/../lib/gcc/arm-atollic-eabi/6.3.1/armv7e-m/fpu\libgcc.a(_arm_addsubdf3.o)
__floatsidf                                       c:/program files/atollic/truestudio for stm32 9.0.1/armtools/bin/../lib/gcc/arm-atollic-eabi/6.3.1/armv7e-m/fpu\libgcc.a(_arm_addsubdf3.o)
__floatundidf                                     c:/program files/atollic/truestudio for stm32 9.0.1/armtools/bin/../lib/gcc/arm-atollic-eabi/6.3.1/armv7e-m/fpu\libgcc.a(_arm_addsubdf3.o)
__floatunsidf                                     c:/program files/atollic/truestudio for stm32 9.0.1/armtools/bin/../lib/gcc/arm-atollic-eabi/6.3.1/armv7e-m/fpu\libgcc.a(_arm_addsubdf3.o)
__gedf2                                           c:/program files/atollic/truestudio for stm32 9.0.1/armtools/bin/../lib/gcc/arm-atollic-eabi/6.3.1/armv7e-m/fpu\libgcc.a(_arm_cmpdf2.o)
__gtdf2                                           c:/program files/atollic/truestudio for stm32 9.0.1/armtools/bin/../lib/gcc/arm-atollic-eabi/6.3.1/armv7e-m/fpu\libgcc.a(_arm_cmpdf2.o)
__ieee754_powf                                    c:/program files/atollic/truestudio for stm32 9.0.1/armtools/bin/../lib/gcc/arm-atollic-eabi/6.3.1/../../../../arm-atollic-eabi/lib/armv7e-m/fpu\libm.a(lib_a-ef_pow.o)
                                                  c:/program files/atollic/truestudio for stm32 9.0.1/armtools/bin/../lib/gcc/arm-atollic-eabi/6.3.1/../../../../arm-atollic-eabi/lib/armv7e-m/fpu\libm.a(lib_a-wf_pow.o)
__ieee754_sqrtf                                   c:/program files/atollic/truestudio for stm32 9.0.1/armtools/bin/../lib/gcc/arm-atollic-eabi/6.3.1/../../../../arm-atollic-eabi/lib/armv7e-m/fpu\libm.a(lib_a-ef_sqrt.o)
                                                  c:/program files/atollic/truestudio for stm32 9.0.1/armtools/bin/../lib/gcc/arm-atollic-eabi/6.3.1/../../../../arm-atollic-eabi/lib/armv7e-m/fpu\libm.a(lib_a-ef_pow.o)
__init_array_end                                  c:/program files/atollic/truestudio for stm32 9.0.1/armtools/bin/../lib/gcc/arm-atollic-eabi/6.3.1/../../../../arm-atollic-eabi/lib/armv7e-m/fpu\libc_nano.a(lib_a-init.o)
__init_array_start                                c:/program files/atollic/truestudio for stm32 9.0.1/armtools/bin/../lib/gcc/arm-atollic-eabi/6.3.1/../../../../arm-atollic-eabi/lib/armv7e-m/fpu\libc_nano.a(lib_a-init.o)
__ledf2                                           c:/program files/atollic/truestudio for stm32 9.0.1/armtools/bin/../lib/gcc/arm-atollic-eabi/6.3.1/armv7e-m/fpu\libgcc.a(_arm_cmpdf2.o)
__libc_init_array                                 c:/program files/atollic/truestudio for stm32 9.0.1/armtools/bin/../lib/gcc/arm-atollic-eabi/6.3.1/../../../../arm-atollic-eabi/lib/armv7e-m/fpu\libc_nano.a(lib_a-init.o)
                                                  lib\startup_stm32f4xx.o
__ltdf2                                           c:/program files/atollic/truestudio for stm32 9.0.1/armtools/bin/../lib/gcc/arm-atollic-eabi/6.3.1/armv7e-m/fpu\libgcc.a(_arm_cmpdf2.o)
__malloc_free_list                                c:/program files/atollic/truestudio for stm32 9.0.1/armtools/bin/../lib/gcc/arm-atollic-eabi/6.3.1/../../../../arm-atollic-eabi/lib/armv7e-m/fpu\libc_nano.a(lib_a-nano-mallocr.o)
                                                  c:/program files/atollic/truestudio for stm32 9.0.1/armtools/bin/../lib/gcc/arm-atollic-eabi/6.3.1/../../../../arm-atollic-eabi/lib/armv7e-m/fpu\libc_nano.a(lib_a-nano-freer.o)
__malloc_lock                                     c:/program files/atollic/truestudio for stm32 9.0.1/armtools/bin/../lib/gcc/arm-atollic-eabi/6.3.1/../../../../arm-atollic-eabi/lib/armv7e-m/fpu\libc_nano.a(lib_a-mlock.o)
                                                  c:/program files/atollic/truestudio for stm32 9.0.1/armtools/bin/../lib/gcc/arm-atollic-eabi/6.3.1/../../../../arm-atollic-eabi/lib/armv7e-m/fpu\libc_nano.a(lib_a-nano-mallocr.o)
                                                  c:/program files/atollic/truestudio for stm32 9.0.1/armtools/bin/../lib/gcc/arm-atollic-eabi/6.3.1/../../../../arm-atollic-eabi/lib/armv7e-m/fpu\libc_nano.a(lib_a-nano-freer.o)
__malloc_sbrk_start                               c:/program files/atollic/truestudio for stm32 9.0.1/armtools/bin/../lib/gcc/arm-atollic-eabi/6.3.1/../../../../arm-atollic-eabi/lib/armv7e-m/fpu\libc_nano.a(lib_a-nano-mallocr.o)
__malloc_unlock                                   c:/program files/atollic/truestudio for stm32 9.0.1/armtools/bin/../lib/gcc/arm-atollic-eabi/6.3.1/../../../../arm-atollic-eabi/lib/armv7e-m/fpu\libc_nano.a(lib_a-mlock.o)
                                                  c:/program files/atollic/truestudio for stm32 9.0.1/armtools/bin/../lib/gcc/arm-atollic-eabi/6.3.1/../../../../arm-atollic-eabi/lib/armv7e-m/fpu\libc_nano.a(lib_a-nano-mallocr.o)
                                                  c:/program files/atollic/truestudio for stm32 9.0.1/armtools/bin/../lib/gcc/arm-atollic-eabi/6.3.1/../../../../arm-atollic-eabi/lib/armv7e-m/fpu\libc_nano.a(lib_a-nano-freer.o)
__muldf3                                          c:/program files/atollic/truestudio for stm32 9.0.1/armtools/bin/../lib/gcc/arm-atollic-eabi/6.3.1/armv7e-m/fpu\libgcc.a(_arm_muldivdf3.o)
__nedf2                                           c:/program files/atollic/truestudio for stm32 9.0.1/armtools/bin/../lib/gcc/arm-atollic-eabi/6.3.1/armv7e-m/fpu\libgcc.a(_arm_cmpdf2.o)
__preinit_array_end                               c:/program files/atollic/truestudio for stm32 9.0.1/armtools/bin/../lib/gcc/arm-atollic-eabi/6.3.1/../../../../arm-atollic-eabi/lib/armv7e-m/fpu\libc_nano.a(lib_a-init.o)
__preinit_array_start                             c:/program files/atollic/truestudio for stm32 9.0.1/armtools/bin/../lib/gcc/arm-atollic-eabi/6.3.1/../../../../arm-atollic-eabi/lib/armv7e-m/fpu\libc_nano.a(lib_a-init.o)
__register_frame_info                             c:/program files/atollic/truestudio for stm32 9.0.1/armtools/bin/../lib/gcc/arm-atollic-eabi/6.3.1/armv7e-m/fpu/crtbegin.o
__sf_fake_stderr                                  c:/program files/atollic/truestudio for stm32 9.0.1/armtools/bin/../lib/gcc/arm-atollic-eabi/6.3.1/../../../../arm-atollic-eabi/lib/armv7e-m/fpu\libc_nano.a(lib_a-impure.o)
__sf_fake_stdin                                   c:/program files/atollic/truestudio for stm32 9.0.1/armtools/bin/../lib/gcc/arm-atollic-eabi/6.3.1/../../../../arm-atollic-eabi/lib/armv7e-m/fpu\libc_nano.a(lib_a-impure.o)
__sf_fake_stdout                                  c:/program files/atollic/truestudio for stm32 9.0.1/armtools/bin/../lib/gcc/arm-atollic-eabi/6.3.1/../../../../arm-atollic-eabi/lib/armv7e-m/fpu\libc_nano.a(lib_a-impure.o)
__ssprint_r                                       c:/program files/atollic/truestudio for stm32 9.0.1/armtools/bin/../lib/gcc/arm-atollic-eabi/6.3.1/../../../../arm-atollic-eabi/lib/armv7e-m/fpu\libc_nano.a(lib_a-nano-svfprintf.o)
__ssputs_r                                        c:/program files/atollic/truestudio for stm32 9.0.1/armtools/bin/../lib/gcc/arm-atollic-eabi/6.3.1/../../../../arm-atollic-eabi/lib/armv7e-m/fpu\libc_nano.a(lib_a-nano-svfprintf.o)
__subdf3                                          c:/program files/atollic/truestudio for stm32 9.0.1/armtools/bin/../lib/gcc/arm-atollic-eabi/6.3.1/armv7e-m/fpu\libgcc.a(_arm_addsubdf3.o)
__truncdfsf2                                      c:/program files/atollic/truestudio for stm32 9.0.1/armtools/bin/../lib/gcc/arm-atollic-eabi/6.3.1/armv7e-m/fpu\libgcc.a(_arm_truncdfsf2.o)
_close                                            src\syscalls.o
_ebss                                             lib\startup_stm32f4xx.o
_edata                                            lib\startup_stm32f4xx.o
_estack                                           lib\startup_stm32f4xx.o
_fini                                             c:/program files/atollic/truestudio for stm32 9.0.1/armtools/bin/../lib/gcc/arm-atollic-eabi/6.3.1/armv7e-m/fpu/crti.o
_free_r                                           c:/program files/atollic/truestudio for stm32 9.0.1/armtools/bin/../lib/gcc/arm-atollic-eabi/6.3.1/../../../../arm-atollic-eabi/lib/armv7e-m/fpu\libc_nano.a(lib_a-nano-freer.o)
                                                  c:/program files/atollic/truestudio for stm32 9.0.1/armtools/bin/../lib/gcc/arm-atollic-eabi/6.3.1/../../../../arm-atollic-eabi/lib/armv7e-m/fpu\libc_nano.a(lib_a-nano-reallocr.o)
                                                  c:/program files/atollic/truestudio for stm32 9.0.1/armtools/bin/../lib/gcc/arm-atollic-eabi/6.3.1/../../../../arm-atollic-eabi/lib/armv7e-m/fpu\libc_nano.a(lib_a-nano-svfprintf.o)
_fstat                                            src\syscalls.o
_global_impure_ptr                                c:/program files/atollic/truestudio for stm32 9.0.1/armtools/bin/../lib/gcc/arm-atollic-eabi/6.3.1/../../../../arm-atollic-eabi/lib/armv7e-m/fpu\libc_nano.a(lib_a-impure.o)
_impure_ptr                                       c:/program files/atollic/truestudio for stm32 9.0.1/armtools/bin/../lib/gcc/arm-atollic-eabi/6.3.1/../../../../arm-atollic-eabi/lib/armv7e-m/fpu\libc_nano.a(lib_a-impure.o)
                                                  c:/program files/atollic/truestudio for stm32 9.0.1/armtools/bin/../lib/gcc/arm-atollic-eabi/6.3.1/../../../../arm-atollic-eabi/lib/armv7e-m/fpu\libc_nano.a(lib_a-sprintf.o)
_init                                             c:/program files/atollic/truestudio for stm32 9.0.1/armtools/bin/../lib/gcc/arm-atollic-eabi/6.3.1/armv7e-m/fpu/crti.o
                                                  c:/program files/atollic/truestudio for stm32 9.0.1/armtools/bin/../lib/gcc/arm-atollic-eabi/6.3.1/../../../../arm-atollic-eabi/lib/armv7e-m/fpu\libc_nano.a(lib_a-init.o)
_isatty                                           src\syscalls.o
_lseek                                            src\syscalls.o
_malloc_r                                         c:/program files/atollic/truestudio for stm32 9.0.1/armtools/bin/../lib/gcc/arm-atollic-eabi/6.3.1/../../../../arm-atollic-eabi/lib/armv7e-m/fpu\libc_nano.a(lib_a-nano-mallocr.o)
                                                  c:/program files/atollic/truestudio for stm32 9.0.1/armtools/bin/../lib/gcc/arm-atollic-eabi/6.3.1/../../../../arm-atollic-eabi/lib/armv7e-m/fpu\libc_nano.a(lib_a-nano-reallocr.o)
                                                  c:/program files/atollic/truestudio for stm32 9.0.1/armtools/bin/../lib/gcc/arm-atollic-eabi/6.3.1/../../../../arm-atollic-eabi/lib/armv7e-m/fpu\libc_nano.a(lib_a-nano-svfprintf.o)
_malloc_usable_size_r                             c:/program files/atollic/truestudio for stm32 9.0.1/armtools/bin/../lib/gcc/arm-atollic-eabi/6.3.1/../../../../arm-atollic-eabi/lib/armv7e-m/fpu\libc_nano.a(lib_a-nano-msizer.o)
                                                  c:/program files/atollic/truestudio for stm32 9.0.1/armtools/bin/../lib/gcc/arm-atollic-eabi/6.3.1/../../../../arm-atollic-eabi/lib/armv7e-m/fpu\libc_nano.a(lib_a-nano-reallocr.o)
_open                                             src\syscalls.o
_printf_common                                    c:/program files/atollic/truestudio for stm32 9.0.1/armtools/bin/../lib/gcc/arm-atollic-eabi/6.3.1/../../../../arm-atollic-eabi/lib/armv7e-m/fpu\libc_nano.a(lib_a-nano-vfprintf_i.o)
_printf_float                                     c:/program files/atollic/truestudio for stm32 9.0.1/armtools/bin/../lib/gcc/arm-atollic-eabi/6.3.1/../../../../arm-atollic-eabi/lib/armv7e-m/fpu\libc_nano.a(lib_a-nano-svfprintf.o)
_printf_i                                         c:/program files/atollic/truestudio for stm32 9.0.1/armtools/bin/../lib/gcc/arm-atollic-eabi/6.3.1/../../../../arm-atollic-eabi/lib/armv7e-m/fpu\libc_nano.a(lib_a-nano-vfprintf_i.o)
                                                  c:/program files/atollic/truestudio for stm32 9.0.1/armtools/bin/../lib/gcc/arm-atollic-eabi/6.3.1/../../../../arm-atollic-eabi/lib/armv7e-m/fpu\libc_nano.a(lib_a-nano-svfprintf.o)
_read                                             src\syscalls.o
_realloc_r                                        c:/program files/atollic/truestudio for stm32 9.0.1/armtools/bin/../lib/gcc/arm-atollic-eabi/6.3.1/../../../../arm-atollic-eabi/lib/armv7e-m/fpu\libc_nano.a(lib_a-nano-reallocr.o)
                                                  c:/program files/atollic/truestudio for stm32 9.0.1/armtools/bin/../lib/gcc/arm-atollic-eabi/6.3.1/../../../../arm-atollic-eabi/lib/armv7e-m/fpu\libc_nano.a(lib_a-nano-svfprintf.o)
_sbrk_r                                           src\syscalls.o
                                                  c:/program files/atollic/truestudio for stm32 9.0.1/armtools/bin/../lib/gcc/arm-atollic-eabi/6.3.1/../../../../arm-atollic-eabi/lib/armv7e-m/fpu\libc_nano.a(lib_a-nano-mallocr.o)
_sbss                                             lib\startup_stm32f4xx.o
_sdata                                            lib\startup_stm32f4xx.o
_sidata                                           lib\startup_stm32f4xx.o
_siprintf_r                                       c:/program files/atollic/truestudio for stm32 9.0.1/armtools/bin/../lib/gcc/arm-atollic-eabi/6.3.1/../../../../arm-atollic-eabi/lib/armv7e-m/fpu\libc_nano.a(lib_a-sprintf.o)
_sprintf_r                                        c:/program files/atollic/truestudio for stm32 9.0.1/armtools/bin/../lib/gcc/arm-atollic-eabi/6.3.1/../../../../arm-atollic-eabi/lib/armv7e-m/fpu\libc_nano.a(lib_a-sprintf.o)
_svfiprintf_r                                     c:/program files/atollic/truestudio for stm32 9.0.1/armtools/bin/../lib/gcc/arm-atollic-eabi/6.3.1/../../../../arm-atollic-eabi/lib/armv7e-m/fpu\libc_nano.a(lib_a-nano-svfprintf.o)
_svfprintf_r                                      c:/program files/atollic/truestudio for stm32 9.0.1/armtools/bin/../lib/gcc/arm-atollic-eabi/6.3.1/../../../../arm-atollic-eabi/lib/armv7e-m/fpu\libc_nano.a(lib_a-nano-svfprintf.o)
                                                  c:/program files/atollic/truestudio for stm32 9.0.1/armtools/bin/../lib/gcc/arm-atollic-eabi/6.3.1/../../../../arm-atollic-eabi/lib/armv7e-m/fpu\libc_nano.a(lib_a-sprintf.o)
_write                                            src\syscalls.o
copysignf                                         c:/program files/atollic/truestudio for stm32 9.0.1/armtools/bin/../lib/gcc/arm-atollic-eabi/6.3.1/../../../../arm-atollic-eabi/lib/armv7e-m/fpu\libm.a(lib_a-sf_copysign.o)
                                                  c:/program files/atollic/truestudio for stm32 9.0.1/armtools/bin/../lib/gcc/arm-atollic-eabi/6.3.1/../../../../arm-atollic-eabi/lib/armv7e-m/fpu\libm.a(lib_a-sf_scalbn.o)
end                                               src\syscalls.o
fabsf                                             c:/program files/atollic/truestudio for stm32 9.0.1/armtools/bin/../lib/gcc/arm-atollic-eabi/6.3.1/../../../../arm-atollic-eabi/lib/armv7e-m/fpu\libm.a(lib_a-sf_fabs.o)
                                                  c:/program files/atollic/truestudio for stm32 9.0.1/armtools/bin/../lib/gcc/arm-atollic-eabi/6.3.1/../../../../arm-atollic-eabi/lib/armv7e-m/fpu\libm.a(lib_a-ef_pow.o)
finitef                                           c:/program files/atollic/truestudio for stm32 9.0.1/armtools/bin/../lib/gcc/arm-atollic-eabi/6.3.1/../../../../arm-atollic-eabi/lib/armv7e-m/fpu\libm.a(lib_a-sf_finite.o)
                                                  c:/program files/atollic/truestudio for stm32 9.0.1/armtools/bin/../lib/gcc/arm-atollic-eabi/6.3.1/../../../../arm-atollic-eabi/lib/armv7e-m/fpu\libm.a(lib_a-wf_pow.o)
floorf                                            c:/program files/atollic/truestudio for stm32 9.0.1/armtools/bin/../lib/gcc/arm-atollic-eabi/6.3.1/../../../../arm-atollic-eabi/lib/armv7e-m/fpu\libm.a(lib_a-sf_floor.o)
                                                  src\utils.o
ftostr                                            src\utils.o
g_pfnVectors                                      lib\startup_stm32f4xx.o
hMP3Decoder                                       src\main.o
init                                              src\main.o
main                                              src\main.o
                                                  lib\startup_stm32f4xx.o
matherr                                           c:/program files/atollic/truestudio for stm32 9.0.1/armtools/bin/../lib/gcc/arm-atollic-eabi/6.3.1/../../../../arm-atollic-eabi/lib/armv7e-m/fpu\libm.a(lib_a-s_matherr.o)
                                                  c:/program files/atollic/truestudio for stm32 9.0.1/armtools/bin/../lib/gcc/arm-atollic-eabi/6.3.1/../../../../arm-atollic-eabi/lib/armv7e-m/fpu\libm.a(lib_a-wf_pow.o)
memchr                                            c:/program files/atollic/truestudio for stm32 9.0.1/armtools/bin/../lib/gcc/arm-atollic-eabi/6.3.1/../../../../arm-atollic-eabi/lib/armv7e-m/fpu\libc_nano.a(lib_a-memchr.o)
                                                  c:/program files/atollic/truestudio for stm32 9.0.1/armtools/bin/../lib/gcc/arm-atollic-eabi/6.3.1/../../../../arm-atollic-eabi/lib/armv7e-m/fpu\libc_nano.a(lib_a-nano-vfprintf_i.o)
                                                  c:/program files/atollic/truestudio for stm32 9.0.1/armtools/bin/../lib/gcc/arm-atollic-eabi/6.3.1/../../../../arm-atollic-eabi/lib/armv7e-m/fpu\libc_nano.a(lib_a-nano-svfprintf.o)
memcpy                                            c:/program files/atollic/truestudio for stm32 9.0.1/armtools/bin/../lib/gcc/arm-atollic-eabi/6.3.1/../../../../arm-atollic-eabi/lib/armv7e-m/fpu\libc_nano.a(lib_a-memcpy-stub.o)
                                                  c:/program files/atollic/truestudio for stm32 9.0.1/armtools/bin/../lib/gcc/arm-atollic-eabi/6.3.1/../../../../arm-atollic-eabi/lib/armv7e-m/fpu\libc_nano.a(lib_a-nano-reallocr.o)
                                                  c:/program files/atollic/truestudio for stm32 9.0.1/armtools/bin/../lib/gcc/arm-atollic-eabi/6.3.1/../../../../arm-atollic-eabi/lib/armv7e-m/fpu\libc_nano.a(lib_a-nano-svfprintf.o)
                                                  helix\mp3dec.o
memmove                                           c:/program files/atollic/truestudio for stm32 9.0.1/armtools/bin/../lib/gcc/arm-atollic-eabi/6.3.1/../../../../arm-atollic-eabi/lib/armv7e-m/fpu\libc_nano.a(lib_a-memmove.o)
                                                  c:/program files/atollic/truestudio for stm32 9.0.1/armtools/bin/../lib/gcc/arm-atollic-eabi/6.3.1/../../../../arm-atollic-eabi/lib/armv7e-m/fpu\libc_nano.a(lib_a-nano-svfprintf.o)
                                                  helix\mp3dec.o
mp3FrameInfo                                      src\main.o
mp3_data                                          src\mp3_data.o
                                                  src\main.o
nanf                                              c:/program files/atollic/truestudio for stm32 9.0.1/armtools/bin/../lib/gcc/arm-atollic-eabi/6.3.1/../../../../arm-atollic-eabi/lib/armv7e-m/fpu\libm.a(lib_a-sf_nan.o)
                                                  c:/program files/atollic/truestudio for stm32 9.0.1/armtools/bin/../lib/gcc/arm-atollic-eabi/6.3.1/../../../../arm-atollic-eabi/lib/armv7e-m/fpu\libm.a(lib_a-ef_pow.o)
powf                                              c:/program files/atollic/truestudio for stm32 9.0.1/armtools/bin/../lib/gcc/arm-atollic-eabi/6.3.1/../../../../arm-atollic-eabi/lib/armv7e-m/fpu\libm.a(lib_a-wf_pow.o)
                                                  src\utils.o
rint                                              c:/program files/atollic/truestudio for stm32 9.0.1/armtools/bin/../lib/gcc/arm-atollic-eabi/6.3.1/../../../../arm-atollic-eabi/lib/armv7e-m/fpu\libm.a(lib_a-s_rint.o)
                                                  c:/program files/atollic/truestudio for stm32 9.0.1/armtools/bin/../lib/gcc/arm-atollic-eabi/6.3.1/../../../../arm-atollic-eabi/lib/armv7e-m/fpu\libm.a(lib_a-wf_pow.o)
scalbnf                                           c:/program files/atollic/truestudio for stm32 9.0.1/armtools/bin/../lib/gcc/arm-atollic-eabi/6.3.1/../../../../arm-atollic-eabi/lib/armv7e-m/fpu\libm.a(lib_a-sf_scalbn.o)
                                                  c:/program files/atollic/truestudio for stm32 9.0.1/armtools/bin/../lib/gcc/arm-atollic-eabi/6.3.1/../../../../arm-atollic-eabi/lib/armv7e-m/fpu\libm.a(lib_a-ef_pow.o)
siprintf                                          c:/program files/atollic/truestudio for stm32 9.0.1/armtools/bin/../lib/gcc/arm-atollic-eabi/6.3.1/../../../../arm-atollic-eabi/lib/armv7e-m/fpu\libc_nano.a(lib_a-sprintf.o)
sprintf                                           c:/program files/atollic/truestudio for stm32 9.0.1/armtools/bin/../lib/gcc/arm-atollic-eabi/6.3.1/../../../../arm-atollic-eabi/lib/armv7e-m/fpu\libc_nano.a(lib_a-sprintf.o)
                                                  src\utils.o
time_var1                                         src\main.o
time_var2                                         src\main.o
timing_handler                                    src\main.o
                                                  src\stm32f4xx_it.o
xmp3fixpt_AllocateBuffers                         helix\real\buffers.o
                                                  helix\mp3dec.o
xmp3fixpt_CalcBitsUsed                            helix\real\bitstream.o
                                                  helix\real\scalfact.o
xmp3fixpt_CheckPadBit                             helix\real\bitstream.o
                                                  helix\mp3dec.o
xmp3fixpt_DecodeHuffman                           helix\real\huffman.o
                                                  helix\mp3dec.o
xmp3fixpt_DequantChannel                          helix\real\dqchan.o
                                                  helix\real\dequant.o
xmp3fixpt_Dequantize                              helix\real\dequant.o
                                                  helix\mp3dec.o
xmp3fixpt_FDCT32                                  helix\real\dct32.o
                                                  helix\real\subband.o
xmp3fixpt_FreeBuffers                             helix\real\buffers.o
                                                  helix\mp3dec.o
xmp3fixpt_GetBits                                 helix\real\bitstream.o
                                                  helix\real\scalfact.o
xmp3fixpt_IMDCT                                   helix\real\imdct.o
                                                  helix\mp3dec.o
xmp3fixpt_ISFIIP                                  helix\real\trigtabs_fixpt.o
                                                  helix\real\stproc.o
xmp3fixpt_ISFMpeg1                                helix\real\trigtabs_fixpt.o
                                                  helix\real\stproc.o
xmp3fixpt_ISFMpeg2                                helix\real\trigtabs_fixpt.o
                                                  helix\real\stproc.o
xmp3fixpt_IntensityProcMPEG1                      helix\real\stproc.o
                                                  helix\real\dequant.o
xmp3fixpt_IntensityProcMPEG2                      helix\real\stproc.o
                                                  helix\real\dequant.o
xmp3fixpt_MidSideProc                             helix\real\stproc.o
                                                  helix\real\dequant.o
xmp3fixpt_PolyphaseMono                           helix\real\polyphase.o
                                                  helix\real\subband.o
xmp3fixpt_PolyphaseStereo                         helix\real\polyphase.o
                                                  helix\real\subband.o
xmp3fixpt_SetBitstreamPointer                     helix\real\bitstream.o
                                                  helix\real\scalfact.o
xmp3fixpt_Subband                                 helix\real\subband.o
                                                  helix\mp3dec.o
xmp3fixpt_UnpackFrameHeader                       helix\real\bitstream.o
                                                  helix\mp3dec.o
xmp3fixpt_UnpackScaleFactors                      helix\real\scalfact.o
                                                  helix\mp3dec.o
xmp3fixpt_UnpackSideInfo                          helix\real\bitstream.o
                                                  helix\mp3dec.o
xmp3fixpt_bitrateTab                              helix\mp3tabs.o
                                                  helix\real\bitstream.o
xmp3fixpt_bitsPerSlotTab                          helix\mp3tabs.o
xmp3fixpt_coef32                                  helix\real\trigtabs_fixpt.o
xmp3fixpt_csa                                     helix\real\trigtabs_fixpt.o
                                                  helix\real\imdct.o
xmp3fixpt_huffTabLookup                           helix\real\hufftabs.o
                                                  helix\real\huffman.o
xmp3fixpt_huffTabOffset                           helix\real\hufftabs.o
                                                  helix\real\huffman.o
xmp3fixpt_huffTable                               helix\real\hufftabs.o
                                                  helix\real\huffman.o
xmp3fixpt_imdctWin                                helix\real\trigtabs_fixpt.o
                                                  helix\real\imdct.o
xmp3fixpt_polyCoef                                helix\real\trigtabs_fixpt.o
                                                  helix\real\subband.o
xmp3fixpt_quadTabMaxBits                          helix\real\hufftabs.o
                                                  helix\real\huffman.o
xmp3fixpt_quadTabOffset                           helix\real\hufftabs.o
                                                  helix\real\huffman.o
xmp3fixpt_quadTable                               helix\real\hufftabs.o
                                                  helix\real\huffman.o
xmp3fixpt_samplerateTab                           helix\mp3tabs.o
                                                  helix\real\bitstream.o
xmp3fixpt_samplesPerFrameTab                      helix\mp3tabs.o
                                                  helix\real\bitstream.o
                                                  helix\mp3dec.o
xmp3fixpt_sfBandTable                             helix\mp3tabs.o
                                                  helix\real\bitstream.o
xmp3fixpt_sideBytesTab                            helix\mp3tabs.o
                                                  helix\real\bitstream.o
xmp3fixpt_slotTab                                 helix\mp3tabs.o
                                                  helix\real\bitstream.o
xmp3fixpt_uniqueIDTab                             helix\real\trigtabs_fixpt.o
